ARM GAS  C:\Users\Samuel\AppData\Local\Temp\ccH3w0kW.s 			page 1


   1              		.cpu cortex-m0
   2              		.fpu softvfp
   3              		.eabi_attribute 20, 1
   4              		.eabi_attribute 21, 1
   5              		.eabi_attribute 23, 3
   6              		.eabi_attribute 24, 1
   7              		.eabi_attribute 25, 1
   8              		.eabi_attribute 26, 1
   9              		.eabi_attribute 30, 6
  10              		.eabi_attribute 34, 0
  11              		.eabi_attribute 18, 4
  12              		.code	16
  13              		.file	"main.c"
  14              		.text
  15              	.Ltext0:
  16              		.cfi_sections	.debug_frame
  17              		.comm	data_array,28,4
  18              		.comm	servo_array,40,4
  19              		.comm	feedback_count,2,2
  20              		.comm	timerFlag,1,1
  21              		.global	serv_avg_count
  22              		.bss
  23              		.type	serv_avg_count, %object
  24              		.size	serv_avg_count, 1
  25              	serv_avg_count:
  26 0000 00       		.space	1
  27              		.section	.text.timer_isr,"ax",%progbits
  28              		.align	2
  29              		.global	timer_isr
  30              		.code	16
  31              		.thumb_func
  32              		.type	timer_isr, %function
  33              	timer_isr:
  34              	.LFB33:
  35              		.file 1 ".\\main.c"
   1:.\main.c      **** /* ========================================
   2:.\main.c      ****  *created by Samuel Bury Jan. 31, 2015
   3:.\main.c      ****  *last modified date: Jan. 31, 2015
   4:.\main.c      **** */
   5:.\main.c      **** #include <project.h>
   6:.\main.c      **** 
   7:.\main.c      **** //Initializations of global variables
   8:.\main.c      **** //TODO should this be global or should we declare it in main and pass a
   9:.\main.c      **** //////pointer to each function?
  10:.\main.c      **** uint16 data_array[14]; //stores the parsed instructions from the wiznet
  11:.\main.c      **** uint16 servo_array[20];
  12:.\main.c      **** uint16 feedback_count;
  13:.\main.c      **** uint8 timerFlag;
  14:.\main.c      **** uint8 serv_avg_count = 0;
  15:.\main.c      **** 
  16:.\main.c      **** //this ISR will be used to set our timeFlag according to our timer component
  17:.\main.c      **** ///set to the time of the longest path for our code
  18:.\main.c      **** //TODO test how long it takes code to run before really implementing this
  19:.\main.c      **** 
  20:.\main.c      **** 
  21:.\main.c      **** CY_ISR(timer_isr)
  22:.\main.c      **** {
ARM GAS  C:\Users\Samuel\AppData\Local\Temp\ccH3w0kW.s 			page 2


  36              		.loc 1 22 0
  37              		.cfi_startproc
  38 0000 80B5     		push	{r7, lr}
  39              		.cfi_def_cfa_offset 8
  40              		.cfi_offset 7, -8
  41              		.cfi_offset 14, -4
  42 0002 82B0     		sub	sp, sp, #8
  43              		.cfi_def_cfa_offset 16
  44 0004 00AF     		add	r7, sp, #0
  45              		.cfi_def_cfa_register 7
  23:.\main.c      ****     uint32 isr_var = Timer_1_GetInterruptSourceMasked();
  46              		.loc 1 23 0
  47 0006 FFF7FEFF 		bl	Timer_1_GetInterruptSourceMasked
  48 000a 031C     		mov	r3, r0
  49 000c 7B60     		str	r3, [r7, #4]
  24:.\main.c      ****     timerFlag = 1;
  50              		.loc 1 24 0
  51 000e 054B     		ldr	r3, .L2
  52 0010 0122     		mov	r2, #1
  53 0012 1A70     		strb	r2, [r3]
  25:.\main.c      ****     Timer_1_ClearInterrupt(isr_var);
  54              		.loc 1 25 0
  55 0014 7B68     		ldr	r3, [r7, #4]
  56 0016 181C     		mov	r0, r3
  57 0018 FFF7FEFF 		bl	Timer_1_ClearInterrupt
  26:.\main.c      **** }
  58              		.loc 1 26 0
  59 001c BD46     		mov	sp, r7
  60 001e 02B0     		add	sp, sp, #8
  61              		@ sp needed
  62 0020 80BD     		pop	{r7, pc}
  63              	.L3:
  64 0022 C046     		.align	2
  65              	.L2:
  66 0024 00000000 		.word	timerFlag
  67              		.cfi_endproc
  68              	.LFE33:
  69              		.size	timer_isr, .-timer_isr
  70              		.section	.text.fill_data_array,"ax",%progbits
  71              		.align	2
  72              		.global	fill_data_array
  73              		.code	16
  74              		.thumb_func
  75              		.type	fill_data_array, %function
  76              	fill_data_array:
  77              	.LFB34:
  27:.\main.c      **** 
  28:.\main.c      **** 
  29:.\main.c      **** //Funtion declarations/definitions
  30:.\main.c      **** //TODO do we need to make a header for good practice?
  31:.\main.c      **** 
  32:.\main.c      **** //---------------------------------------------------
  33:.\main.c      **** //    Function stubs for the header
  34:.\main.c      **** //---------------------------------------------------
  35:.\main.c      **** void fill_data_array();
  36:.\main.c      **** void baseAzimuth();
  37:.\main.c      **** void shoulder();
ARM GAS  C:\Users\Samuel\AppData\Local\Temp\ccH3w0kW.s 			page 3


  38:.\main.c      **** void elbow();
  39:.\main.c      **** void wristTilt();
  40:.\main.c      **** void wristRotate();
  41:.\main.c      **** void send_feedback();
  42:.\main.c      **** //--------------------------------------------------- END Function Stubs
  43:.\main.c      **** 
  44:.\main.c      **** 
  45:.\main.c      **** //to be used for parsing reading/parsing the data from the wiznet
  46:.\main.c      **** void fill_data_array() //maybe take param: uint8* array
  47:.\main.c      **** {
  78              		.loc 1 47 0
  79              		.cfi_startproc
  80 0000 80B5     		push	{r7, lr}
  81              		.cfi_def_cfa_offset 8
  82              		.cfi_offset 7, -8
  83              		.cfi_offset 14, -4
  84 0002 82B0     		sub	sp, sp, #8
  85              		.cfi_def_cfa_offset 16
  86 0004 00AF     		add	r7, sp, #0
  87              		.cfi_def_cfa_register 7
  48:.\main.c      ****     //read one byte at a time
  49:.\main.c      ****     uint8 c = UART_1_UartGetChar();
  88              		.loc 1 49 0
  89 0006 FFF7FEFF 		bl	UART_1_UartGetChar
  90 000a 021C     		mov	r2, r0
  91 000c FB1D     		add	r3, r7, #7
  92 000e 1A70     		strb	r2, [r3]
  50:.\main.c      ****     
  51:.\main.c      **** 
  52:.\main.c      ****     if(c == 'q'){
  93              		.loc 1 52 0
  94 0010 FB1D     		add	r3, r7, #7
  95 0012 1B78     		ldrb	r3, [r3]
  96 0014 712B     		cmp	r3, #113
  97 0016 04D1     		bne	.L5
  53:.\main.c      ****         data_array[1] = 2000;
  98              		.loc 1 53 0
  99 0018 354B     		ldr	r3, .L18
 100 001a FA22     		mov	r2, #250
 101 001c D200     		lsl	r2, r2, #3
 102 001e 5A80     		strh	r2, [r3, #2]
 103 0020 62E0     		b	.L4
 104              	.L5:
  54:.\main.c      ****     }
  55:.\main.c      ****     else if(c == 'w'){
 105              		.loc 1 55 0
 106 0022 FB1D     		add	r3, r7, #7
 107 0024 1B78     		ldrb	r3, [r3]
 108 0026 772B     		cmp	r3, #119
 109 0028 03D1     		bne	.L7
  56:.\main.c      ****         data_array[1] = 1750;
 110              		.loc 1 56 0
 111 002a 314B     		ldr	r3, .L18
 112 002c 314A     		ldr	r2, .L18+4
 113 002e 5A80     		strh	r2, [r3, #2]
 114 0030 5AE0     		b	.L4
 115              	.L7:
ARM GAS  C:\Users\Samuel\AppData\Local\Temp\ccH3w0kW.s 			page 4


  57:.\main.c      ****     }
  58:.\main.c      ****     else if(c == 'e'){
 116              		.loc 1 58 0
 117 0032 FB1D     		add	r3, r7, #7
 118 0034 1B78     		ldrb	r3, [r3]
 119 0036 652B     		cmp	r3, #101
 120 0038 03D1     		bne	.L8
  59:.\main.c      ****         data_array[1] = 1500;
 121              		.loc 1 59 0
 122 003a 2D4B     		ldr	r3, .L18
 123 003c 2E4A     		ldr	r2, .L18+8
 124 003e 5A80     		strh	r2, [r3, #2]
 125 0040 52E0     		b	.L4
 126              	.L8:
  60:.\main.c      ****     }
  61:.\main.c      ****     else if(c == 'r'){
 127              		.loc 1 61 0
 128 0042 FB1D     		add	r3, r7, #7
 129 0044 1B78     		ldrb	r3, [r3]
 130 0046 722B     		cmp	r3, #114
 131 0048 03D1     		bne	.L9
  62:.\main.c      ****         data_array[1] = 1250;
 132              		.loc 1 62 0
 133 004a 294B     		ldr	r3, .L18
 134 004c 2B4A     		ldr	r2, .L18+12
 135 004e 5A80     		strh	r2, [r3, #2]
 136 0050 4AE0     		b	.L4
 137              	.L9:
  63:.\main.c      ****     }
  64:.\main.c      ****     else if(c == 't'){
 138              		.loc 1 64 0
 139 0052 FB1D     		add	r3, r7, #7
 140 0054 1B78     		ldrb	r3, [r3]
 141 0056 742B     		cmp	r3, #116
 142 0058 04D1     		bne	.L10
  65:.\main.c      ****         data_array[1] = 1000;
 143              		.loc 1 65 0
 144 005a 254B     		ldr	r3, .L18
 145 005c FA22     		mov	r2, #250
 146 005e 9200     		lsl	r2, r2, #2
 147 0060 5A80     		strh	r2, [r3, #2]
 148 0062 41E0     		b	.L4
 149              	.L10:
  66:.\main.c      ****     }    
  67:.\main.c      ****     else if(c == '1'){
 150              		.loc 1 67 0
 151 0064 FB1D     		add	r3, r7, #7
 152 0066 1B78     		ldrb	r3, [r3]
 153 0068 312B     		cmp	r3, #49
 154 006a 04D1     		bne	.L11
  68:.\main.c      ****         data_array[2] = 1000;
 155              		.loc 1 68 0
 156 006c 204B     		ldr	r3, .L18
 157 006e FA22     		mov	r2, #250
 158 0070 9200     		lsl	r2, r2, #2
 159 0072 9A80     		strh	r2, [r3, #4]
 160 0074 38E0     		b	.L4
ARM GAS  C:\Users\Samuel\AppData\Local\Temp\ccH3w0kW.s 			page 5


 161              	.L11:
  69:.\main.c      ****     }
  70:.\main.c      ****     else if(c == '2'){
 162              		.loc 1 70 0
 163 0076 FB1D     		add	r3, r7, #7
 164 0078 1B78     		ldrb	r3, [r3]
 165 007a 322B     		cmp	r3, #50
 166 007c 03D1     		bne	.L12
  71:.\main.c      ****         data_array[2] = 5000;
 167              		.loc 1 71 0
 168 007e 1C4B     		ldr	r3, .L18
 169 0080 1F4A     		ldr	r2, .L18+16
 170 0082 9A80     		strh	r2, [r3, #4]
 171 0084 30E0     		b	.L4
 172              	.L12:
  72:.\main.c      ****     }
  73:.\main.c      ****     else if(c == '3'){
 173              		.loc 1 73 0
 174 0086 FB1D     		add	r3, r7, #7
 175 0088 1B78     		ldrb	r3, [r3]
 176 008a 332B     		cmp	r3, #51
 177 008c 03D1     		bne	.L13
  74:.\main.c      ****         data_array[2] = 10000;
 178              		.loc 1 74 0
 179 008e 184B     		ldr	r3, .L18
 180 0090 1C4A     		ldr	r2, .L18+20
 181 0092 9A80     		strh	r2, [r3, #4]
 182 0094 28E0     		b	.L4
 183              	.L13:
  75:.\main.c      ****     }
  76:.\main.c      ****     else if(c == '4'){
 184              		.loc 1 76 0
 185 0096 FB1D     		add	r3, r7, #7
 186 0098 1B78     		ldrb	r3, [r3]
 187 009a 342B     		cmp	r3, #52
 188 009c 03D1     		bne	.L14
  77:.\main.c      ****         data_array[2] = 15000;
 189              		.loc 1 77 0
 190 009e 144B     		ldr	r3, .L18
 191 00a0 194A     		ldr	r2, .L18+24
 192 00a2 9A80     		strh	r2, [r3, #4]
 193 00a4 20E0     		b	.L4
 194              	.L14:
  78:.\main.c      ****     }
  79:.\main.c      ****     else if(c == '5'){
 195              		.loc 1 79 0
 196 00a6 FB1D     		add	r3, r7, #7
 197 00a8 1B78     		ldrb	r3, [r3]
 198 00aa 352B     		cmp	r3, #53
 199 00ac 03D1     		bne	.L15
  80:.\main.c      ****         data_array[2] =19000;
 200              		.loc 1 80 0
 201 00ae 104B     		ldr	r3, .L18
 202 00b0 164A     		ldr	r2, .L18+28
 203 00b2 9A80     		strh	r2, [r3, #4]
 204 00b4 18E0     		b	.L4
 205              	.L15:
ARM GAS  C:\Users\Samuel\AppData\Local\Temp\ccH3w0kW.s 			page 6


  81:.\main.c      ****     }    
  82:.\main.c      ****     else if(c == 'j'){
 206              		.loc 1 82 0
 207 00b6 FB1D     		add	r3, r7, #7
 208 00b8 1B78     		ldrb	r3, [r3]
 209 00ba 6A2B     		cmp	r3, #106
 210 00bc 04D1     		bne	.L16
  83:.\main.c      ****         data_array[3] = 1000;
 211              		.loc 1 83 0
 212 00be 0C4B     		ldr	r3, .L18
 213 00c0 FA22     		mov	r2, #250
 214 00c2 9200     		lsl	r2, r2, #2
 215 00c4 DA80     		strh	r2, [r3, #6]
 216 00c6 0FE0     		b	.L4
 217              	.L16:
  84:.\main.c      ****     }
  85:.\main.c      ****     else if(c == 'k'){
 218              		.loc 1 85 0
 219 00c8 FB1D     		add	r3, r7, #7
 220 00ca 1B78     		ldrb	r3, [r3]
 221 00cc 6B2B     		cmp	r3, #107
 222 00ce 03D1     		bne	.L17
  86:.\main.c      ****         data_array[3] = 1500;
 223              		.loc 1 86 0
 224 00d0 074B     		ldr	r3, .L18
 225 00d2 094A     		ldr	r2, .L18+8
 226 00d4 DA80     		strh	r2, [r3, #6]
 227 00d6 07E0     		b	.L4
 228              	.L17:
  87:.\main.c      ****     }
  88:.\main.c      ****     else if(c == 'l'){
 229              		.loc 1 88 0
 230 00d8 FB1D     		add	r3, r7, #7
 231 00da 1B78     		ldrb	r3, [r3]
 232 00dc 6C2B     		cmp	r3, #108
 233 00de 03D1     		bne	.L4
  89:.\main.c      ****         data_array[3] =2000;
 234              		.loc 1 89 0
 235 00e0 034B     		ldr	r3, .L18
 236 00e2 FA22     		mov	r2, #250
 237 00e4 D200     		lsl	r2, r2, #3
 238 00e6 DA80     		strh	r2, [r3, #6]
 239              	.L4:
  90:.\main.c      ****     }    
  91:.\main.c      **** 
  92:.\main.c      **** }
 240              		.loc 1 92 0
 241 00e8 BD46     		mov	sp, r7
 242 00ea 02B0     		add	sp, sp, #8
 243              		@ sp needed
 244 00ec 80BD     		pop	{r7, pc}
 245              	.L19:
 246 00ee C046     		.align	2
 247              	.L18:
 248 00f0 00000000 		.word	data_array
 249 00f4 D6060000 		.word	1750
 250 00f8 DC050000 		.word	1500
ARM GAS  C:\Users\Samuel\AppData\Local\Temp\ccH3w0kW.s 			page 7


 251 00fc E2040000 		.word	1250
 252 0100 88130000 		.word	5000
 253 0104 10270000 		.word	10000
 254 0108 983A0000 		.word	15000
 255 010c 384A0000 		.word	19000
 256              		.cfi_endproc
 257              	.LFE34:
 258              		.size	fill_data_array, .-fill_data_array
 259              		.section	.text.baseAzimuth,"ax",%progbits
 260              		.align	2
 261              		.global	baseAzimuth
 262              		.code	16
 263              		.thumb_func
 264              		.type	baseAzimuth, %function
 265              	baseAzimuth:
 266              	.LFB35:
  93:.\main.c      **** 
  94:.\main.c      **** //control the turret
  95:.\main.c      **** void baseAzimuth()
  96:.\main.c      **** {
 267              		.loc 1 96 0
 268              		.cfi_startproc
 269 0000 80B5     		push	{r7, lr}
 270              		.cfi_def_cfa_offset 8
 271              		.cfi_offset 7, -8
 272              		.cfi_offset 14, -4
 273 0002 00AF     		add	r7, sp, #0
 274              		.cfi_def_cfa_register 7
  97:.\main.c      ****     //take instruction from data_array
  98:.\main.c      ****     //smooth input
  99:.\main.c      ****     //actuate the turret using PWM
 100:.\main.c      ****     
 101:.\main.c      ****     
 102:.\main.c      **** }
 275              		.loc 1 102 0
 276 0004 BD46     		mov	sp, r7
 277              		@ sp needed
 278 0006 80BD     		pop	{r7, pc}
 279              		.cfi_endproc
 280              	.LFE35:
 281              		.size	baseAzimuth, .-baseAzimuth
 282              		.comm	shldr_state,1,1
 283              		.section	.text.shoulder,"ax",%progbits
 284              		.align	2
 285              		.global	shoulder
 286              		.code	16
 287              		.thumb_func
 288              		.type	shoulder, %function
 289              	shoulder:
 290              	.LFB36:
 103:.\main.c      **** 
 104:.\main.c      **** enum shldr_states {shldr_start, shldr_init, shldr_fdbk, shldr_exe} shldr_state;
 105:.\main.c      **** //control the shoulder
 106:.\main.c      **** void shoulder()
 107:.\main.c      **** {
 291              		.loc 1 107 0
 292              		.cfi_startproc
ARM GAS  C:\Users\Samuel\AppData\Local\Temp\ccH3w0kW.s 			page 8


 293 0000 80B5     		push	{r7, lr}
 294              		.cfi_def_cfa_offset 8
 295              		.cfi_offset 7, -8
 296              		.cfi_offset 14, -4
 297 0002 00AF     		add	r7, sp, #0
 298              		.cfi_def_cfa_register 7
 108:.\main.c      ****     //take instruction from data_array
 109:.\main.c      ****     //smooth input
 110:.\main.c      ****     //actuate the shoulder using PWM
 111:.\main.c      ****     //get feedback
 112:.\main.c      ****     
 113:.\main.c      ****     /*~~~~~~~~~~~~~~~~~~~~~~~~~~~~~~~~~~~~~~~~~~~~~*/
 114:.\main.c      ****     //switch statement for state actions
 115:.\main.c      **** 		//start
 116:.\main.c      **** 			//break
 117:.\main.c      **** 		//initialize
 118:.\main.c      **** 			//create smoothing array
 119:.\main.c      **** 		//feedback
 120:.\main.c      **** 			//read feedback
 121:.\main.c      **** 		//execute
 122:.\main.c      **** 			//add the shifted value from main to back of smoothing array
 123:.\main.c      **** 			//calculate average of value in array
 124:.\main.c      ****     
 125:.\main.c      ****     switch(shldr_state)
 299              		.loc 1 125 0
 300 0004 0E4B     		ldr	r3, .L29
 301 0006 1B78     		ldrb	r3, [r3]
 302 0008 012B     		cmp	r3, #1
 303 000a 0CD0     		beq	.L23
 304 000c 02DC     		bgt	.L24
 305 000e 002B     		cmp	r3, #0
 306 0010 05D0     		beq	.L25
 307 0012 12E0     		b	.L21
 308              	.L24:
 309 0014 022B     		cmp	r3, #2
 310 0016 0FD0     		beq	.L28
 311 0018 032B     		cmp	r3, #3
 312 001a 08D0     		beq	.L27
 313 001c 0DE0     		b	.L21
 314              	.L25:
 126:.\main.c      ****     {//switch staatement for state transitions
 127:.\main.c      **** 		case shldr_start: //start
 128:.\main.c      **** 			//next state will be init
 129:.\main.c      ****             shldr_state = shldr_init;
 315              		.loc 1 129 0
 316 001e 084B     		ldr	r3, .L29
 317 0020 0122     		mov	r2, #1
 318 0022 1A70     		strb	r2, [r3]
 130:.\main.c      ****             break;
 319              		.loc 1 130 0
 320 0024 09E0     		b	.L21
 321              	.L23:
 131:.\main.c      ****         
 132:.\main.c      **** 		case shldr_init: //initialize
 133:.\main.c      **** 			//next state will be feedback
 134:.\main.c      ****             shldr_state = shldr_fdbk;
 322              		.loc 1 134 0
ARM GAS  C:\Users\Samuel\AppData\Local\Temp\ccH3w0kW.s 			page 9


 323 0026 064B     		ldr	r3, .L29
 324 0028 0222     		mov	r2, #2
 325 002a 1A70     		strb	r2, [r3]
 135:.\main.c      ****             break;
 326              		.loc 1 135 0
 327 002c 05E0     		b	.L21
 328              	.L27:
 136:.\main.c      ****         
 137:.\main.c      **** 		case shldr_fdbk://feedback
 138:.\main.c      **** 			//if position ok relative to average
 139:.\main.c      **** 				//execute
 140:.\main.c      **** 			//else if not ok
 141:.\main.c      **** 				//report problem
 142:.\main.c      ****             break;
 143:.\main.c      **** 		case shldr_exe://execute
 144:.\main.c      **** 			//next state will be report
 145:.\main.c      ****             shldr_state = shldr_fdbk;
 329              		.loc 1 145 0
 330 002e 044B     		ldr	r3, .L29
 331 0030 0222     		mov	r2, #2
 332 0032 1A70     		strb	r2, [r3]
 146:.\main.c      ****             break;
 333              		.loc 1 146 0
 334 0034 C046     		mov	r8, r8
 335 0036 00E0     		b	.L21
 336              	.L28:
 142:.\main.c      ****             break;
 337              		.loc 1 142 0
 338 0038 C046     		mov	r8, r8
 339              	.L21:
 147:.\main.c      ****     }
 148:.\main.c      ****     /*~~~~~~~~~~~~~~~~~~~~~~~~~~~~~~~~~~~~~~~~~~~*/
 149:.\main.c      **** }
 340              		.loc 1 149 0
 341 003a BD46     		mov	sp, r7
 342              		@ sp needed
 343 003c 80BD     		pop	{r7, pc}
 344              	.L30:
 345 003e C046     		.align	2
 346              	.L29:
 347 0040 00000000 		.word	shldr_state
 348              		.cfi_endproc
 349              	.LFE36:
 350              		.size	shoulder, .-shoulder
 351              		.section	.text.elbow,"ax",%progbits
 352              		.align	2
 353              		.global	elbow
 354              		.code	16
 355              		.thumb_func
 356              		.type	elbow, %function
 357              	elbow:
 358              	.LFB37:
 150:.\main.c      **** 
 151:.\main.c      **** //control the elbow
 152:.\main.c      **** void elbow()
 153:.\main.c      **** {
 359              		.loc 1 153 0
ARM GAS  C:\Users\Samuel\AppData\Local\Temp\ccH3w0kW.s 			page 10


 360              		.cfi_startproc
 361 0000 80B5     		push	{r7, lr}
 362              		.cfi_def_cfa_offset 8
 363              		.cfi_offset 7, -8
 364              		.cfi_offset 14, -4
 365 0002 00AF     		add	r7, sp, #0
 366              		.cfi_def_cfa_register 7
 154:.\main.c      ****     //take instruction from data_array
 155:.\main.c      ****     //smooth input
 156:.\main.c      ****     //actuate the elbow using PWM
 157:.\main.c      ****     //get feedback
 158:.\main.c      **** }
 367              		.loc 1 158 0
 368 0004 BD46     		mov	sp, r7
 369              		@ sp needed
 370 0006 80BD     		pop	{r7, pc}
 371              		.cfi_endproc
 372              	.LFE37:
 373              		.size	elbow, .-elbow
 374              		.comm	wristTilt_state,1,1
 375              		.section	.text.wristTilt,"ax",%progbits
 376              		.align	2
 377              		.global	wristTilt
 378              		.code	16
 379              		.thumb_func
 380              		.type	wristTilt, %function
 381              	wristTilt:
 382              	.LFB38:
 159:.\main.c      **** 
 160:.\main.c      **** enum wristTilt_states {tilt_init = 0, tilt_start, tilt_control, tilt_feedback} wristTilt_state;
 161:.\main.c      **** //control the tilting motion of the wrist
 162:.\main.c      **** void wristTilt()
 163:.\main.c      **** {
 383              		.loc 1 163 0
 384              		.cfi_startproc
 385 0000 80B5     		push	{r7, lr}
 386              		.cfi_def_cfa_offset 8
 387              		.cfi_offset 7, -8
 388              		.cfi_offset 14, -4
 389 0002 00AF     		add	r7, sp, #0
 390              		.cfi_def_cfa_register 7
 164:.\main.c      ****     // Overview
 165:.\main.c      ****     //take instruction from data_array
 166:.\main.c      ****     //smooth input
 167:.\main.c      ****     //actuate the tilting using UART
 168:.\main.c      ****     //get feedback
 169:.\main.c      **** 
 170:.\main.c      ****     //-------------------------- 
 171:.\main.c      ****     // Dynamixel Servo specific
 172:.\main.c      ****     // TODO: Set the torque - Requires building an array with bit representation
 173:.\main.c      ****     // TODO: Set the desired position
 174:.\main.c      **** 
 175:.\main.c      ****     //--------------------------
 176:.\main.c      ****     // State machine
 177:.\main.c      ****     
 178:.\main.c      ****         // Action
 179:.\main.c      ****     switch(wristTilt_state)
ARM GAS  C:\Users\Samuel\AppData\Local\Temp\ccH3w0kW.s 			page 11


 391              		.loc 1 179 0
 392 0004 0F4B     		ldr	r3, .L48
 393 0006 1B78     		ldrb	r3, [r3]
 394 0008 012B     		cmp	r3, #1
 395 000a 06D0     		beq	.L45
 396 000c 07DC     		bgt	.L46
 397 000e 002B     		cmp	r3, #0
 398 0010 06D1     		bne	.L33
 180:.\main.c      ****     {
 181:.\main.c      ****         case tilt_init:
 182:.\main.c      ****             wristTilt_state = tilt_start;
 399              		.loc 1 182 0
 400 0012 0C4B     		ldr	r3, .L48
 401 0014 0122     		mov	r2, #1
 402 0016 1A70     		strb	r2, [r3]
 183:.\main.c      ****             break;
 403              		.loc 1 183 0
 404 0018 02E0     		b	.L33
 405              	.L45:
 184:.\main.c      ****         case tilt_start:
 185:.\main.c      ****             // Set the torque - this is a one time thing
 186:.\main.c      ****             // Set the speed - I think this is a one time thing
 187:.\main.c      ****             break;
 406              		.loc 1 187 0
 407 001a C046     		mov	r8, r8
 408 001c 00E0     		b	.L33
 409              	.L46:
 188:.\main.c      ****         case tilt_control:
 189:.\main.c      ****             break;
 410              		.loc 1 189 0
 411 001e C046     		mov	r8, r8
 412              	.L33:
 190:.\main.c      ****         case tilt_feedback:
 191:.\main.c      ****             break;
 192:.\main.c      ****     }
 193:.\main.c      ****         // Transistion
 194:.\main.c      ****     switch(wristTilt_state)
 413              		.loc 1 194 0
 414 0020 084B     		ldr	r3, .L48
 415 0022 1B78     		ldrb	r3, [r3]
 416 0024 012B     		cmp	r3, #1
 417 0026 06D0     		beq	.L40
 418 0028 09DC     		bgt	.L47
 419 002a 002B     		cmp	r3, #0
 420 002c 08D1     		bne	.L32
 195:.\main.c      ****     {
 196:.\main.c      ****         case tilt_init:
 197:.\main.c      ****             wristTilt_state = tilt_start;
 421              		.loc 1 197 0
 422 002e 054B     		ldr	r3, .L48
 423 0030 0122     		mov	r2, #1
 424 0032 1A70     		strb	r2, [r3]
 198:.\main.c      ****             break;
 425              		.loc 1 198 0
 426 0034 04E0     		b	.L32
 427              	.L40:
 199:.\main.c      ****         case tilt_start:
ARM GAS  C:\Users\Samuel\AppData\Local\Temp\ccH3w0kW.s 			page 12


 200:.\main.c      ****             wristTilt_state = tilt_control;
 428              		.loc 1 200 0
 429 0036 034B     		ldr	r3, .L48
 430 0038 0222     		mov	r2, #2
 431 003a 1A70     		strb	r2, [r3]
 201:.\main.c      ****             break;
 432              		.loc 1 201 0
 433 003c 00E0     		b	.L32
 434              	.L47:
 202:.\main.c      ****         case tilt_control:
 203:.\main.c      ****             break;
 435              		.loc 1 203 0
 436 003e C046     		mov	r8, r8
 437              	.L32:
 204:.\main.c      ****         case tilt_feedback:
 205:.\main.c      ****             break;
 206:.\main.c      ****     }
 207:.\main.c      **** }
 438              		.loc 1 207 0
 439 0040 BD46     		mov	sp, r7
 440              		@ sp needed
 441 0042 80BD     		pop	{r7, pc}
 442              	.L49:
 443              		.align	2
 444              	.L48:
 445 0044 00000000 		.word	wristTilt_state
 446              		.cfi_endproc
 447              	.LFE38:
 448              		.size	wristTilt, .-wristTilt
 449              		.comm	wristRotate_state,1,1
 450              		.section	.text.wristRotate,"ax",%progbits
 451              		.align	2
 452              		.global	wristRotate
 453              		.code	16
 454              		.thumb_func
 455              		.type	wristRotate, %function
 456              	wristRotate:
 457              	.LFB39:
 208:.\main.c      **** 
 209:.\main.c      **** enum wristRotate_states {rotate_init = 0, rotate_start, rotate_control, rotate_feedback} wristRotat
 210:.\main.c      **** //control the rotating motion of the wrist
 211:.\main.c      **** void wristRotate()
 212:.\main.c      **** {
 458              		.loc 1 212 0
 459              		.cfi_startproc
 460 0000 80B5     		push	{r7, lr}
 461              		.cfi_def_cfa_offset 8
 462              		.cfi_offset 7, -8
 463              		.cfi_offset 14, -4
 464 0002 00AF     		add	r7, sp, #0
 465              		.cfi_def_cfa_register 7
 213:.\main.c      ****     //Overview
 214:.\main.c      ****     //take instruction from data_array
 215:.\main.c      ****     //smooth input
 216:.\main.c      ****     //actuate the tilting using UART
 217:.\main.c      ****     //get feedback
 218:.\main.c      **** 
ARM GAS  C:\Users\Samuel\AppData\Local\Temp\ccH3w0kW.s 			page 13


 219:.\main.c      ****     //-------------------------- 
 220:.\main.c      ****     // Dynamixel Servo specific
 221:.\main.c      ****     // TODO: Set the torque - Requires building an array with bit representation
 222:.\main.c      ****     // TODO: Set the desired position
 223:.\main.c      **** 
 224:.\main.c      ****     //--------------------------
 225:.\main.c      ****     // State machine
 226:.\main.c      ****     
 227:.\main.c      ****         // Action
 228:.\main.c      ****     switch(wristRotate_state)
 466              		.loc 1 228 0
 467 0004 0F4B     		ldr	r3, .L66
 468 0006 1B78     		ldrb	r3, [r3]
 469 0008 012B     		cmp	r3, #1
 470 000a 06D0     		beq	.L63
 471 000c 07DC     		bgt	.L64
 472 000e 002B     		cmp	r3, #0
 473 0010 06D1     		bne	.L51
 229:.\main.c      ****     {
 230:.\main.c      ****         case rotate_init:
 231:.\main.c      ****             wristRotate_state = rotate_start;
 474              		.loc 1 231 0
 475 0012 0C4B     		ldr	r3, .L66
 476 0014 0122     		mov	r2, #1
 477 0016 1A70     		strb	r2, [r3]
 232:.\main.c      ****             break;
 478              		.loc 1 232 0
 479 0018 02E0     		b	.L51
 480              	.L63:
 233:.\main.c      ****         case rotate_start:
 234:.\main.c      ****             // Set the torque - this is a one time thing
 235:.\main.c      ****             // Set the speed - I think this is a one time thing
 236:.\main.c      ****             break;
 481              		.loc 1 236 0
 482 001a C046     		mov	r8, r8
 483 001c 00E0     		b	.L51
 484              	.L64:
 237:.\main.c      ****         case rotate_control:
 238:.\main.c      ****             break;
 485              		.loc 1 238 0
 486 001e C046     		mov	r8, r8
 487              	.L51:
 239:.\main.c      ****         case rotate_feedback:
 240:.\main.c      ****             break;
 241:.\main.c      ****     }
 242:.\main.c      ****         // Transistion
 243:.\main.c      ****     switch(wristRotate_state)
 488              		.loc 1 243 0
 489 0020 084B     		ldr	r3, .L66
 490 0022 1B78     		ldrb	r3, [r3]
 491 0024 012B     		cmp	r3, #1
 492 0026 06D0     		beq	.L58
 493 0028 09DC     		bgt	.L65
 494 002a 002B     		cmp	r3, #0
 495 002c 08D1     		bne	.L50
 244:.\main.c      ****     {
 245:.\main.c      ****         case rotate_init:
ARM GAS  C:\Users\Samuel\AppData\Local\Temp\ccH3w0kW.s 			page 14


 246:.\main.c      ****             wristRotate_state = rotate_start;
 496              		.loc 1 246 0
 497 002e 054B     		ldr	r3, .L66
 498 0030 0122     		mov	r2, #1
 499 0032 1A70     		strb	r2, [r3]
 247:.\main.c      ****             break;
 500              		.loc 1 247 0
 501 0034 04E0     		b	.L50
 502              	.L58:
 248:.\main.c      ****         case rotate_start:
 249:.\main.c      ****             wristRotate_state = rotate_control;
 503              		.loc 1 249 0
 504 0036 034B     		ldr	r3, .L66
 505 0038 0222     		mov	r2, #2
 506 003a 1A70     		strb	r2, [r3]
 250:.\main.c      ****             break;
 507              		.loc 1 250 0
 508 003c 00E0     		b	.L50
 509              	.L65:
 251:.\main.c      ****         case rotate_control:
 252:.\main.c      ****             break;
 510              		.loc 1 252 0
 511 003e C046     		mov	r8, r8
 512              	.L50:
 253:.\main.c      ****         case rotate_feedback:
 254:.\main.c      ****             break;
 255:.\main.c      ****     }
 256:.\main.c      **** }
 513              		.loc 1 256 0
 514 0040 BD46     		mov	sp, r7
 515              		@ sp needed
 516 0042 80BD     		pop	{r7, pc}
 517              	.L67:
 518              		.align	2
 519              	.L66:
 520 0044 00000000 		.word	wristRotate_state
 521              		.cfi_endproc
 522              	.LFE39:
 523              		.size	wristRotate, .-wristRotate
 524              		.section	.text.send_feedback,"ax",%progbits
 525              		.align	2
 526              		.global	send_feedback
 527              		.code	16
 528              		.thumb_func
 529              		.type	send_feedback, %function
 530              	send_feedback:
 531              	.LFB40:
 257:.\main.c      **** 
 258:.\main.c      **** void send_feedback()
 259:.\main.c      **** {
 532              		.loc 1 259 0
 533              		.cfi_startproc
 534 0000 80B5     		push	{r7, lr}
 535              		.cfi_def_cfa_offset 8
 536              		.cfi_offset 7, -8
 537              		.cfi_offset 14, -4
 538 0002 00AF     		add	r7, sp, #0
ARM GAS  C:\Users\Samuel\AppData\Local\Temp\ccH3w0kW.s 			page 15


 539              		.cfi_def_cfa_register 7
 260:.\main.c      ****     //compile all of the most recent feedback variables into a packet
 261:.\main.c      ****     //necessary feedback variables: system state, dynamixel read write errors, PID errors
 262:.\main.c      ****     //TODO define system state
 263:.\main.c      ****     //send packet via serial to wiznet
 264:.\main.c      **** }
 540              		.loc 1 264 0
 541 0004 BD46     		mov	sp, r7
 542              		@ sp needed
 543 0006 80BD     		pop	{r7, pc}
 544              		.cfi_endproc
 545              	.LFE40:
 546              		.size	send_feedback, .-send_feedback
 547              		.comm	led_state,1,1
 548              		.section	.text.led,"ax",%progbits
 549              		.align	2
 550              		.global	led
 551              		.code	16
 552              		.thumb_func
 553              		.type	led, %function
 554              	led:
 555              	.LFB41:
 265:.\main.c      **** 
 266:.\main.c      **** enum led_states {l_start,l_different,l_wait} led_state;
 267:.\main.c      **** void led()
 268:.\main.c      **** {
 556              		.loc 1 268 0
 557              		.cfi_startproc
 558 0000 80B5     		push	{r7, lr}
 559              		.cfi_def_cfa_offset 8
 560              		.cfi_offset 7, -8
 561              		.cfi_offset 14, -4
 562 0002 82B0     		sub	sp, sp, #8
 563              		.cfi_def_cfa_offset 16
 564 0004 00AF     		add	r7, sp, #0
 565              		.cfi_def_cfa_register 7
 269:.\main.c      ****     uint16 old = 0;
 566              		.loc 1 269 0
 567 0006 BB1D     		add	r3, r7, #6
 568 0008 0022     		mov	r2, #0
 569 000a 1A80     		strh	r2, [r3]
 270:.\main.c      ****     switch(led_state)
 570              		.loc 1 270 0
 571 000c 1C4B     		ldr	r3, .L83
 572 000e 1B78     		ldrb	r3, [r3]
 573 0010 012B     		cmp	r3, #1
 574 0012 09D1     		bne	.L82
 271:.\main.c      ****     {
 272:.\main.c      ****         case l_start:
 273:.\main.c      ****             break;
 274:.\main.c      ****         
 275:.\main.c      ****         case l_different:
 276:.\main.c      ****             PWM_1_WriteCompare1(data_array[1]);
 575              		.loc 1 276 0
 576 0014 1B4B     		ldr	r3, .L83+4
 577 0016 5B88     		ldrh	r3, [r3, #2]
 578 0018 181C     		mov	r0, r3
ARM GAS  C:\Users\Samuel\AppData\Local\Temp\ccH3w0kW.s 			page 16


 579 001a FFF7FEFF 		bl	PWM_1_WriteCompare1
 277:.\main.c      ****             old = data_array[1];
 580              		.loc 1 277 0
 581 001e BB1D     		add	r3, r7, #6
 582 0020 184A     		ldr	r2, .L83+4
 583 0022 5288     		ldrh	r2, [r2, #2]
 584 0024 1A80     		strh	r2, [r3]
 278:.\main.c      ****             break;
 585              		.loc 1 278 0
 586 0026 00E0     		b	.L70
 587              	.L82:
 279:.\main.c      ****             
 280:.\main.c      ****         case l_wait:
 281:.\main.c      ****             break;
 588              		.loc 1 281 0
 589 0028 C046     		mov	r8, r8
 590              	.L70:
 282:.\main.c      ****     }
 283:.\main.c      ****     
 284:.\main.c      ****     switch(led_state)
 591              		.loc 1 284 0
 592 002a 154B     		ldr	r3, .L83
 593 002c 1B78     		ldrb	r3, [r3]
 594 002e 012B     		cmp	r3, #1
 595 0030 07D0     		beq	.L75
 596 0032 022B     		cmp	r3, #2
 597 0034 13D0     		beq	.L76
 598 0036 002B     		cmp	r3, #0
 599 0038 1FD1     		bne	.L69
 285:.\main.c      ****     {
 286:.\main.c      ****         case l_start:
 287:.\main.c      ****             led_state = l_wait;
 600              		.loc 1 287 0
 601 003a 114B     		ldr	r3, .L83
 602 003c 0222     		mov	r2, #2
 603 003e 1A70     		strb	r2, [r3]
 288:.\main.c      ****             break;
 604              		.loc 1 288 0
 605 0040 1BE0     		b	.L69
 606              	.L75:
 289:.\main.c      ****         
 290:.\main.c      ****         case l_different:
 291:.\main.c      ****             if(data_array[1] != old)
 607              		.loc 1 291 0
 608 0042 104B     		ldr	r3, .L83+4
 609 0044 5B88     		ldrh	r3, [r3, #2]
 610 0046 BA1D     		add	r2, r7, #6
 611 0048 1288     		ldrh	r2, [r2]
 612 004a 9A42     		cmp	r2, r3
 613 004c 03D0     		beq	.L78
 292:.\main.c      ****             {
 293:.\main.c      ****                 led_state = l_different;
 614              		.loc 1 293 0
 615 004e 0C4B     		ldr	r3, .L83
 616 0050 0122     		mov	r2, #1
 617 0052 1A70     		strb	r2, [r3]
 294:.\main.c      ****             }
ARM GAS  C:\Users\Samuel\AppData\Local\Temp\ccH3w0kW.s 			page 17


 295:.\main.c      ****             else
 296:.\main.c      ****             {
 297:.\main.c      ****                 led_state = l_wait;
 298:.\main.c      ****             }
 299:.\main.c      ****             break;
 618              		.loc 1 299 0
 619 0054 11E0     		b	.L69
 620              	.L78:
 297:.\main.c      ****                 led_state = l_wait;
 621              		.loc 1 297 0
 622 0056 0A4B     		ldr	r3, .L83
 623 0058 0222     		mov	r2, #2
 624 005a 1A70     		strb	r2, [r3]
 625              		.loc 1 299 0
 626 005c 0DE0     		b	.L69
 627              	.L76:
 300:.\main.c      ****             
 301:.\main.c      ****         case l_wait:
 302:.\main.c      ****             if(data_array[1] != old)
 628              		.loc 1 302 0
 629 005e 094B     		ldr	r3, .L83+4
 630 0060 5B88     		ldrh	r3, [r3, #2]
 631 0062 BA1D     		add	r2, r7, #6
 632 0064 1288     		ldrh	r2, [r2]
 633 0066 9A42     		cmp	r2, r3
 634 0068 03D0     		beq	.L80
 303:.\main.c      ****             {
 304:.\main.c      ****                 led_state = l_different;
 635              		.loc 1 304 0
 636 006a 054B     		ldr	r3, .L83
 637 006c 0122     		mov	r2, #1
 638 006e 1A70     		strb	r2, [r3]
 639 0070 02E0     		b	.L81
 640              	.L80:
 305:.\main.c      ****             }
 306:.\main.c      ****             else
 307:.\main.c      ****             {
 308:.\main.c      ****                 led_state = l_wait;
 641              		.loc 1 308 0
 642 0072 034B     		ldr	r3, .L83
 643 0074 0222     		mov	r2, #2
 644 0076 1A70     		strb	r2, [r3]
 645              	.L81:
 309:.\main.c      ****             }
 310:.\main.c      ****             break;
 646              		.loc 1 310 0
 647 0078 C046     		mov	r8, r8
 648              	.L69:
 311:.\main.c      ****     }
 312:.\main.c      **** }
 649              		.loc 1 312 0
 650 007a BD46     		mov	sp, r7
 651 007c 02B0     		add	sp, sp, #8
 652              		@ sp needed
 653 007e 80BD     		pop	{r7, pc}
 654              	.L84:
 655              		.align	2
ARM GAS  C:\Users\Samuel\AppData\Local\Temp\ccH3w0kW.s 			page 18


 656              	.L83:
 657 0080 00000000 		.word	led_state
 658 0084 00000000 		.word	data_array
 659              		.cfi_endproc
 660              	.LFE41:
 661              		.size	led, .-led
 662              		.comm	servo_state,1,1
 663              		.section	.text.servo,"ax",%progbits
 664              		.align	2
 665              		.global	servo
 666              		.code	16
 667              		.thumb_func
 668              		.type	servo, %function
 669              	servo:
 670              	.LFB42:
 313:.\main.c      **** 
 314:.\main.c      **** //Average function to be used in smoothing our input
 315:.\main.c      **** //uint16 average(uint16* array, uint8 num_items)
 316:.\main.c      **** //{
 317:.\main.c      **** //    uint32 sum = 0;
 318:.\main.c      **** //    uint16 avg = 0;
 319:.\main.c      **** //    
 320:.\main.c      **** //    for(uint8 i = 0; i < num_items; i++)
 321:.\main.c      **** //    {
 322:.\main.c      **** //        sum += array[i];
 323:.\main.c      **** //    }
 324:.\main.c      **** //    
 325:.\main.c      **** //    avg = sum/num_items;
 326:.\main.c      **** //    
 327:.\main.c      **** //    return avg;
 328:.\main.c      **** //}
 329:.\main.c      **** 
 330:.\main.c      **** enum servo_states {s_start,s_different,s_wait} servo_state;
 331:.\main.c      **** void servo()
 332:.\main.c      **** {
 671              		.loc 1 332 0
 672              		.cfi_startproc
 673 0000 80B5     		push	{r7, lr}
 674              		.cfi_def_cfa_offset 8
 675              		.cfi_offset 7, -8
 676              		.cfi_offset 14, -4
 677 0002 82B0     		sub	sp, sp, #8
 678              		.cfi_def_cfa_offset 16
 679 0004 00AF     		add	r7, sp, #0
 680              		.cfi_def_cfa_register 7
 333:.\main.c      ****     uint16 old = 0;
 681              		.loc 1 333 0
 682 0006 BB1D     		add	r3, r7, #6
 683 0008 0022     		mov	r2, #0
 684 000a 1A80     		strh	r2, [r3]
 334:.\main.c      ****     switch(servo_state){
 685              		.loc 1 334 0
 686 000c 1C4B     		ldr	r3, .L99
 687 000e 1B78     		ldrb	r3, [r3]
 688 0010 012B     		cmp	r3, #1
 689 0012 09D1     		bne	.L98
 335:.\main.c      ****         case s_start:
ARM GAS  C:\Users\Samuel\AppData\Local\Temp\ccH3w0kW.s 			page 19


 336:.\main.c      ****             break;
 337:.\main.c      ****         
 338:.\main.c      ****         case s_different:
 339:.\main.c      ****             PWM_1_WriteCompare2(data_array[2]);
 690              		.loc 1 339 0
 691 0014 1B4B     		ldr	r3, .L99+4
 692 0016 9B88     		ldrh	r3, [r3, #4]
 693 0018 181C     		mov	r0, r3
 694 001a FFF7FEFF 		bl	PWM_1_WriteCompare2
 340:.\main.c      ****             old = data_array[2];
 695              		.loc 1 340 0
 696 001e BB1D     		add	r3, r7, #6
 697 0020 184A     		ldr	r2, .L99+4
 698 0022 9288     		ldrh	r2, [r2, #4]
 699 0024 1A80     		strh	r2, [r3]
 341:.\main.c      ****             break;
 700              		.loc 1 341 0
 701 0026 00E0     		b	.L86
 702              	.L98:
 342:.\main.c      ****             
 343:.\main.c      ****         case s_wait:
 344:.\main.c      ****             break;
 703              		.loc 1 344 0
 704 0028 C046     		mov	r8, r8
 705              	.L86:
 345:.\main.c      ****     }
 346:.\main.c      ****     
 347:.\main.c      ****     switch(servo_state){
 706              		.loc 1 347 0
 707 002a 154B     		ldr	r3, .L99
 708 002c 1B78     		ldrb	r3, [r3]
 709 002e 012B     		cmp	r3, #1
 710 0030 07D0     		beq	.L91
 711 0032 022B     		cmp	r3, #2
 712 0034 13D0     		beq	.L92
 713 0036 002B     		cmp	r3, #0
 714 0038 1FD1     		bne	.L85
 348:.\main.c      ****         case s_start:
 349:.\main.c      ****             servo_state = s_wait;
 715              		.loc 1 349 0
 716 003a 114B     		ldr	r3, .L99
 717 003c 0222     		mov	r2, #2
 718 003e 1A70     		strb	r2, [r3]
 350:.\main.c      ****             break;
 719              		.loc 1 350 0
 720 0040 1BE0     		b	.L85
 721              	.L91:
 351:.\main.c      ****         
 352:.\main.c      ****         case s_different:
 353:.\main.c      ****             if(data_array[2] != old)
 722              		.loc 1 353 0
 723 0042 104B     		ldr	r3, .L99+4
 724 0044 9B88     		ldrh	r3, [r3, #4]
 725 0046 BA1D     		add	r2, r7, #6
 726 0048 1288     		ldrh	r2, [r2]
 727 004a 9A42     		cmp	r2, r3
 728 004c 03D0     		beq	.L94
ARM GAS  C:\Users\Samuel\AppData\Local\Temp\ccH3w0kW.s 			page 20


 354:.\main.c      ****             {
 355:.\main.c      ****                 servo_state = s_different;
 729              		.loc 1 355 0
 730 004e 0C4B     		ldr	r3, .L99
 731 0050 0122     		mov	r2, #1
 732 0052 1A70     		strb	r2, [r3]
 356:.\main.c      ****             }
 357:.\main.c      ****             else
 358:.\main.c      ****             {
 359:.\main.c      ****                 servo_state = s_wait;
 360:.\main.c      ****             }
 361:.\main.c      ****             break;
 733              		.loc 1 361 0
 734 0054 11E0     		b	.L85
 735              	.L94:
 359:.\main.c      ****                 servo_state = s_wait;
 736              		.loc 1 359 0
 737 0056 0A4B     		ldr	r3, .L99
 738 0058 0222     		mov	r2, #2
 739 005a 1A70     		strb	r2, [r3]
 740              		.loc 1 361 0
 741 005c 0DE0     		b	.L85
 742              	.L92:
 362:.\main.c      ****             
 363:.\main.c      ****         case s_wait:
 364:.\main.c      ****             if(data_array[2] != old)
 743              		.loc 1 364 0
 744 005e 094B     		ldr	r3, .L99+4
 745 0060 9B88     		ldrh	r3, [r3, #4]
 746 0062 BA1D     		add	r2, r7, #6
 747 0064 1288     		ldrh	r2, [r2]
 748 0066 9A42     		cmp	r2, r3
 749 0068 03D0     		beq	.L96
 365:.\main.c      ****             {
 366:.\main.c      ****                 servo_state = s_different;
 750              		.loc 1 366 0
 751 006a 054B     		ldr	r3, .L99
 752 006c 0122     		mov	r2, #1
 753 006e 1A70     		strb	r2, [r3]
 754 0070 02E0     		b	.L97
 755              	.L96:
 367:.\main.c      ****             }
 368:.\main.c      ****             else
 369:.\main.c      ****             {
 370:.\main.c      ****                 servo_state = s_wait;
 756              		.loc 1 370 0
 757 0072 034B     		ldr	r3, .L99
 758 0074 0222     		mov	r2, #2
 759 0076 1A70     		strb	r2, [r3]
 760              	.L97:
 371:.\main.c      ****             }
 372:.\main.c      ****             break;
 761              		.loc 1 372 0
 762 0078 C046     		mov	r8, r8
 763              	.L85:
 373:.\main.c      ****     }    
 374:.\main.c      **** }
ARM GAS  C:\Users\Samuel\AppData\Local\Temp\ccH3w0kW.s 			page 21


 764              		.loc 1 374 0
 765 007a BD46     		mov	sp, r7
 766 007c 02B0     		add	sp, sp, #8
 767              		@ sp needed
 768 007e 80BD     		pop	{r7, pc}
 769              	.L100:
 770              		.align	2
 771              	.L99:
 772 0080 00000000 		.word	servo_state
 773 0084 00000000 		.word	data_array
 774              		.cfi_endproc
 775              	.LFE42:
 776              		.size	servo, .-servo
 777              		.comm	motor_state,1,1
 778              		.section	.text.motor,"ax",%progbits
 779              		.align	2
 780              		.global	motor
 781              		.code	16
 782              		.thumb_func
 783              		.type	motor, %function
 784              	motor:
 785              	.LFB43:
 375:.\main.c      **** 
 376:.\main.c      **** //New servo design
 377:.\main.c      **** //enum servo_states {s_start,s_pressed,s_wait} servo_state;
 378:.\main.c      **** //void servo()
 379:.\main.c      **** //{
 380:.\main.c      **** //    switch(servo_state){ //actions
 381:.\main.c      **** //        case s_start:
 382:.\main.c      **** //            break;
 383:.\main.c      **** //        
 384:.\main.c      **** //        case s_pressed:
 385:.\main.c      **** //            servo_array[serv_avg_count] = data_array[2];
 386:.\main.c      **** //            PWM_1_WriteCompare2(average(servo_array, 20));
 387:.\main.c      **** //            break;
 388:.\main.c      **** //            
 389:.\main.c      **** //        case s_wait:
 390:.\main.c      **** //            break;
 391:.\main.c      **** //    }
 392:.\main.c      **** //    
 393:.\main.c      **** //    switch(servo_state){ //transitions
 394:.\main.c      **** //        case s_start:
 395:.\main.c      **** //            servo_state = s_wait;
 396:.\main.c      **** //            break;
 397:.\main.c      **** //        
 398:.\main.c      **** //        case s_pressed:
 399:.\main.c      **** //            //TODO: Find Bool for whether or not a key is being pressed
 400:.\main.c      **** //            break;
 401:.\main.c      **** //            
 402:.\main.c      **** //        case s_wait:
 403:.\main.c      **** //            //TODO: Find Bool for whether or not a key is being pressed
 404:.\main.c      **** //            break;
 405:.\main.c      **** //    }    
 406:.\main.c      **** //}
 407:.\main.c      **** 
 408:.\main.c      **** enum motor_states {m_start,m_different,m_wait} motor_state;
 409:.\main.c      **** void motor(){
ARM GAS  C:\Users\Samuel\AppData\Local\Temp\ccH3w0kW.s 			page 22


 786              		.loc 1 409 0
 787              		.cfi_startproc
 788 0000 80B5     		push	{r7, lr}
 789              		.cfi_def_cfa_offset 8
 790              		.cfi_offset 7, -8
 791              		.cfi_offset 14, -4
 792 0002 82B0     		sub	sp, sp, #8
 793              		.cfi_def_cfa_offset 16
 794 0004 00AF     		add	r7, sp, #0
 795              		.cfi_def_cfa_register 7
 410:.\main.c      ****     uint16 old = 0;
 796              		.loc 1 410 0
 797 0006 BB1D     		add	r3, r7, #6
 798 0008 0022     		mov	r2, #0
 799 000a 1A80     		strh	r2, [r3]
 411:.\main.c      ****     switch(motor_state){ //state actions
 800              		.loc 1 411 0
 801 000c 1D4B     		ldr	r3, .L115
 802 000e 1B78     		ldrb	r3, [r3]
 803 0010 012B     		cmp	r3, #1
 804 0012 0AD1     		bne	.L114
 412:.\main.c      ****         case m_start:
 413:.\main.c      ****             break;
 414:.\main.c      ****         
 415:.\main.c      ****         case m_different:
 416:.\main.c      ****             PWM_2_WriteCompare1(data_array[1]);
 805              		.loc 1 416 0
 806 0014 1C4B     		ldr	r3, .L115+4
 807 0016 5B88     		ldrh	r3, [r3, #2]
 808 0018 DBB2     		uxtb	r3, r3
 809 001a 181C     		mov	r0, r3
 810 001c FFF7FEFF 		bl	PWM_2_WriteCompare1
 417:.\main.c      ****             old = data_array[3];
 811              		.loc 1 417 0
 812 0020 BB1D     		add	r3, r7, #6
 813 0022 194A     		ldr	r2, .L115+4
 814 0024 D288     		ldrh	r2, [r2, #6]
 815 0026 1A80     		strh	r2, [r3]
 418:.\main.c      ****             break;
 816              		.loc 1 418 0
 817 0028 00E0     		b	.L102
 818              	.L114:
 419:.\main.c      ****             
 420:.\main.c      ****         case m_wait:
 421:.\main.c      ****             break;
 819              		.loc 1 421 0
 820 002a C046     		mov	r8, r8
 821              	.L102:
 422:.\main.c      ****     }
 423:.\main.c      ****     
 424:.\main.c      ****     switch(motor_state){ //state transitions
 822              		.loc 1 424 0
 823 002c 154B     		ldr	r3, .L115
 824 002e 1B78     		ldrb	r3, [r3]
 825 0030 012B     		cmp	r3, #1
 826 0032 07D0     		beq	.L107
 827 0034 022B     		cmp	r3, #2
ARM GAS  C:\Users\Samuel\AppData\Local\Temp\ccH3w0kW.s 			page 23


 828 0036 13D0     		beq	.L108
 829 0038 002B     		cmp	r3, #0
 830 003a 1FD1     		bne	.L101
 425:.\main.c      ****         case m_start:
 426:.\main.c      ****             motor_state = m_wait;
 831              		.loc 1 426 0
 832 003c 114B     		ldr	r3, .L115
 833 003e 0222     		mov	r2, #2
 834 0040 1A70     		strb	r2, [r3]
 427:.\main.c      ****             break;
 835              		.loc 1 427 0
 836 0042 1BE0     		b	.L101
 837              	.L107:
 428:.\main.c      ****         
 429:.\main.c      ****         case m_different:
 430:.\main.c      ****             if(data_array[3] != old)
 838              		.loc 1 430 0
 839 0044 104B     		ldr	r3, .L115+4
 840 0046 DB88     		ldrh	r3, [r3, #6]
 841 0048 BA1D     		add	r2, r7, #6
 842 004a 1288     		ldrh	r2, [r2]
 843 004c 9A42     		cmp	r2, r3
 844 004e 03D0     		beq	.L110
 431:.\main.c      ****             {
 432:.\main.c      ****                 motor_state = m_different;
 845              		.loc 1 432 0
 846 0050 0C4B     		ldr	r3, .L115
 847 0052 0122     		mov	r2, #1
 848 0054 1A70     		strb	r2, [r3]
 433:.\main.c      ****             }
 434:.\main.c      ****             else
 435:.\main.c      ****             {
 436:.\main.c      ****                 motor_state = m_wait;
 437:.\main.c      ****             }
 438:.\main.c      ****             break;
 849              		.loc 1 438 0
 850 0056 11E0     		b	.L101
 851              	.L110:
 436:.\main.c      ****                 motor_state = m_wait;
 852              		.loc 1 436 0
 853 0058 0A4B     		ldr	r3, .L115
 854 005a 0222     		mov	r2, #2
 855 005c 1A70     		strb	r2, [r3]
 856              		.loc 1 438 0
 857 005e 0DE0     		b	.L101
 858              	.L108:
 439:.\main.c      ****             
 440:.\main.c      ****         case m_wait:
 441:.\main.c      ****             if(data_array[3] != old)
 859              		.loc 1 441 0
 860 0060 094B     		ldr	r3, .L115+4
 861 0062 DB88     		ldrh	r3, [r3, #6]
 862 0064 BA1D     		add	r2, r7, #6
 863 0066 1288     		ldrh	r2, [r2]
 864 0068 9A42     		cmp	r2, r3
 865 006a 03D0     		beq	.L112
 442:.\main.c      ****             {
ARM GAS  C:\Users\Samuel\AppData\Local\Temp\ccH3w0kW.s 			page 24


 443:.\main.c      ****                 motor_state = m_different;
 866              		.loc 1 443 0
 867 006c 054B     		ldr	r3, .L115
 868 006e 0122     		mov	r2, #1
 869 0070 1A70     		strb	r2, [r3]
 870 0072 02E0     		b	.L113
 871              	.L112:
 444:.\main.c      ****             }
 445:.\main.c      ****             else
 446:.\main.c      ****             {
 447:.\main.c      ****                 motor_state = m_wait;
 872              		.loc 1 447 0
 873 0074 034B     		ldr	r3, .L115
 874 0076 0222     		mov	r2, #2
 875 0078 1A70     		strb	r2, [r3]
 876              	.L113:
 448:.\main.c      ****             }
 449:.\main.c      ****             break;
 877              		.loc 1 449 0
 878 007a C046     		mov	r8, r8
 879              	.L101:
 450:.\main.c      ****     }
 451:.\main.c      **** }
 880              		.loc 1 451 0
 881 007c BD46     		mov	sp, r7
 882 007e 02B0     		add	sp, sp, #8
 883              		@ sp needed
 884 0080 80BD     		pop	{r7, pc}
 885              	.L116:
 886 0082 C046     		.align	2
 887              	.L115:
 888 0084 00000000 		.word	motor_state
 889 0088 00000000 		.word	data_array
 890              		.cfi_endproc
 891              	.LFE43:
 892              		.size	motor, .-motor
 893              		.section	.text.main,"ax",%progbits
 894              		.align	2
 895              		.global	main
 896              		.code	16
 897              		.thumb_func
 898              		.type	main, %function
 899              	main:
 900              	.LFB44:
 452:.\main.c      **** int main()
 453:.\main.c      **** {
 901              		.loc 1 453 0
 902              		.cfi_startproc
 903 0000 80B5     		push	{r7, lr}
 904              		.cfi_def_cfa_offset 8
 905              		.cfi_offset 7, -8
 906              		.cfi_offset 14, -4
 907 0002 00AF     		add	r7, sp, #0
 908              		.cfi_def_cfa_register 7
 454:.\main.c      ****     CyGlobalIntEnable;
 909              		.loc 1 454 0
 910              	@ 454 ".\main.c" 1
ARM GAS  C:\Users\Samuel\AppData\Local\Temp\ccH3w0kW.s 			page 25


 911 0004 62B6     		CPSIE   i
 912              	@ 0 "" 2
 455:.\main.c      ****     
 456:.\main.c      ****     //start all of our components
 457:.\main.c      ****     Clock_pwm_Start();
 913              		.loc 1 457 0
 914              		.code	16
 915 0006 FFF7FEFF 		bl	Clock_pwm_Start
 458:.\main.c      ****     Clock_counter_Start();
 916              		.loc 1 458 0
 917 000a FFF7FEFF 		bl	Clock_counter_Start
 459:.\main.c      ****     PWM_1_Start();
 918              		.loc 1 459 0
 919 000e FFF7FEFF 		bl	PWM_1_Start
 460:.\main.c      ****     PWM_2_Start();
 920              		.loc 1 460 0
 921 0012 FFF7FEFF 		bl	PWM_2_Start
 461:.\main.c      ****     Timer_1_Start();
 922              		.loc 1 461 0
 923 0016 FFF7FEFF 		bl	Timer_1_Start
 462:.\main.c      ****     UART_1_Start();
 924              		.loc 1 462 0
 925 001a FFF7FEFF 		bl	UART_1_Start
 463:.\main.c      ****     
 464:.\main.c      ****     isr_1_StartEx(timer_isr);
 926              		.loc 1 464 0
 927 001e 094B     		ldr	r3, .L120
 928 0020 181C     		mov	r0, r3
 929 0022 FFF7FEFF 		bl	isr_1_StartEx
 930              	.L119:
 465:.\main.c      ****     
 466:.\main.c      ****     
 467:.\main.c      ****     for(;;)
 468:.\main.c      ****     {
 469:.\main.c      ****         //check addresses
 470:.\main.c      ****         //TODO get the address bytes from Steve
 471:.\main.c      ****         
 472:.\main.c      ****         
 473:.\main.c      ****         fill_data_array(); //potentially take input &data_array
 931              		.loc 1 473 0
 932 0026 FFF7FEFF 		bl	fill_data_array
 474:.\main.c      **** //        baseAzimuth();
 475:.\main.c      **** //        shoulder();
 476:.\main.c      **** //        elbow();
 477:.\main.c      **** //        wristTilt();
 478:.\main.c      **** //        wristRotate();
 479:.\main.c      **** 
 480:.\main.c      ****         led();
 933              		.loc 1 480 0
 934 002a FFF7FEFF 		bl	led
 481:.\main.c      ****         servo();
 935              		.loc 1 481 0
 936 002e FFF7FEFF 		bl	servo
 482:.\main.c      ****         
 483:.\main.c      ****         
 484:.\main.c      ****         while(!timerFlag) //this while loop will periodize our code to the time of longest path
 937              		.loc 1 484 0
ARM GAS  C:\Users\Samuel\AppData\Local\Temp\ccH3w0kW.s 			page 26


 938 0032 C046     		mov	r8, r8
 939              	.L118:
 940              		.loc 1 484 0 is_stmt 0 discriminator 1
 941 0034 044B     		ldr	r3, .L120+4
 942 0036 1B78     		ldrb	r3, [r3]
 943 0038 002B     		cmp	r3, #0
 944 003a FBD0     		beq	.L118
 485:.\main.c      ****         {
 486:.\main.c      **** //            //Potential solution to how we will want to send feedback
 487:.\main.c      **** //            feedback_count++;
 488:.\main.c      **** //            if(feedback_count == feedback_interval) //sends feeback to base station every 50th
 489:.\main.c      **** //            {                                        //time through the full set of instructions
 490:.\main.c      **** //                send_feedback();
 491:.\main.c      **** //            }
 492:.\main.c      ****         }
 493:.\main.c      ****         timerFlag = 0;
 945              		.loc 1 493 0 is_stmt 1
 946 003c 024B     		ldr	r3, .L120+4
 947 003e 0022     		mov	r2, #0
 948 0040 1A70     		strb	r2, [r3]
 494:.\main.c      ****         
 495:.\main.c      ****     }
 949              		.loc 1 495 0
 950 0042 F0E7     		b	.L119
 951              	.L121:
 952              		.align	2
 953              	.L120:
 954 0044 00000000 		.word	timer_isr
 955 0048 00000000 		.word	timerFlag
 956              		.cfi_endproc
 957              	.LFE44:
 958              		.size	main, .-main
 959              		.text
 960              	.Letext0:
 961              		.file 2 ".\\Generated_Source\\PSoC4/cytypes.h"