ARM GAS  C:\Users\Samuel\AppData\Local\Temp\cckvrh5D.s 			page 1


   1              		.cpu cortex-m0
   2              		.fpu softvfp
   3              		.eabi_attribute 20, 1
   4              		.eabi_attribute 21, 1
   5              		.eabi_attribute 23, 3
   6              		.eabi_attribute 24, 1
   7              		.eabi_attribute 25, 1
   8              		.eabi_attribute 26, 1
   9              		.eabi_attribute 30, 6
  10              		.eabi_attribute 34, 0
  11              		.eabi_attribute 18, 4
  12              		.code	16
  13              		.file	"cyfitter_cfg.c"
  14              		.text
  15              	.Ltext0:
  16              		.cfi_sections	.debug_frame
  17              		.section	.text.CYMEMZERO,"ax",%progbits
  18              		.align	2
  19              		.code	16
  20              		.thumb_func
  21              		.type	CYMEMZERO, %function
  22              	CYMEMZERO:
  23              	.LFB0:
  24              		.file 1 ".\\Generated_Source\\PSoC4\\cyfitter_cfg.c"
   1:.\Generated_Source\PSoC4/cyfitter_cfg.c **** /*******************************************************************************
   2:.\Generated_Source\PSoC4/cyfitter_cfg.c **** * FILENAME: cyfitter_cfg.c
   3:.\Generated_Source\PSoC4/cyfitter_cfg.c **** * PSoC Creator  3.1 Component Pack 1
   4:.\Generated_Source\PSoC4/cyfitter_cfg.c **** *
   5:.\Generated_Source\PSoC4/cyfitter_cfg.c **** * Description:
   6:.\Generated_Source\PSoC4/cyfitter_cfg.c **** * This file is automatically generated by PSoC Creator with device 
   7:.\Generated_Source\PSoC4/cyfitter_cfg.c **** * initialization code.  Except for the user defined sections in
   8:.\Generated_Source\PSoC4/cyfitter_cfg.c **** * CyClockStartupError(), this file should not be modified.
   9:.\Generated_Source\PSoC4/cyfitter_cfg.c **** *
  10:.\Generated_Source\PSoC4/cyfitter_cfg.c **** ********************************************************************************
  11:.\Generated_Source\PSoC4/cyfitter_cfg.c **** * Copyright 2013, Cypress Semiconductor Corporation.  All rights reserved.
  12:.\Generated_Source\PSoC4/cyfitter_cfg.c **** * You may use this file only in accordance with the license, terms, conditions, 
  13:.\Generated_Source\PSoC4/cyfitter_cfg.c **** * disclaimers, and limitations in the end user license agreement accompanying 
  14:.\Generated_Source\PSoC4/cyfitter_cfg.c **** * the software package with which this file was provided.
  15:.\Generated_Source\PSoC4/cyfitter_cfg.c **** ********************************************************************************/
  16:.\Generated_Source\PSoC4/cyfitter_cfg.c **** 
  17:.\Generated_Source\PSoC4/cyfitter_cfg.c **** #include <string.h>
  18:.\Generated_Source\PSoC4/cyfitter_cfg.c **** #include <cytypes.h>
  19:.\Generated_Source\PSoC4/cyfitter_cfg.c **** #include <cydevice_trm.h>
  20:.\Generated_Source\PSoC4/cyfitter_cfg.c **** #include <cyfitter.h>
  21:.\Generated_Source\PSoC4/cyfitter_cfg.c **** #include <CyLib.h>
  22:.\Generated_Source\PSoC4/cyfitter_cfg.c **** #include <cyfitter_cfg.h>
  23:.\Generated_Source\PSoC4/cyfitter_cfg.c **** 
  24:.\Generated_Source\PSoC4/cyfitter_cfg.c **** 
  25:.\Generated_Source\PSoC4/cyfitter_cfg.c **** #if defined(__GNUC__) || defined(__ARMCC_VERSION)
  26:.\Generated_Source\PSoC4/cyfitter_cfg.c ****     #define CYPACKED 
  27:.\Generated_Source\PSoC4/cyfitter_cfg.c ****     #define CYPACKED_ATTR __attribute__ ((packed))
  28:.\Generated_Source\PSoC4/cyfitter_cfg.c ****     #define CYALIGNED __attribute__ ((aligned))
  29:.\Generated_Source\PSoC4/cyfitter_cfg.c ****     #define CY_CFG_UNUSED __attribute__ ((unused))
  30:.\Generated_Source\PSoC4/cyfitter_cfg.c ****     #define CY_CFG_SECTION __attribute__ ((section(".psocinit")))
  31:.\Generated_Source\PSoC4/cyfitter_cfg.c ****     
  32:.\Generated_Source\PSoC4/cyfitter_cfg.c ****     #if defined(__ARMCC_VERSION)
  33:.\Generated_Source\PSoC4/cyfitter_cfg.c ****         #define CY_CFG_MEMORY_BARRIER() __memory_changed()
ARM GAS  C:\Users\Samuel\AppData\Local\Temp\cckvrh5D.s 			page 2


  34:.\Generated_Source\PSoC4/cyfitter_cfg.c ****     #else
  35:.\Generated_Source\PSoC4/cyfitter_cfg.c ****         #define CY_CFG_MEMORY_BARRIER() __sync_synchronize()
  36:.\Generated_Source\PSoC4/cyfitter_cfg.c ****     #endif
  37:.\Generated_Source\PSoC4/cyfitter_cfg.c ****     
  38:.\Generated_Source\PSoC4/cyfitter_cfg.c **** #elif defined(__ICCARM__)
  39:.\Generated_Source\PSoC4/cyfitter_cfg.c ****     #include <intrinsics.h>
  40:.\Generated_Source\PSoC4/cyfitter_cfg.c **** 
  41:.\Generated_Source\PSoC4/cyfitter_cfg.c ****     #define CYPACKED __packed
  42:.\Generated_Source\PSoC4/cyfitter_cfg.c ****     #define CYPACKED_ATTR 
  43:.\Generated_Source\PSoC4/cyfitter_cfg.c ****     #define CYALIGNED _Pragma("data_alignment=4")
  44:.\Generated_Source\PSoC4/cyfitter_cfg.c ****     #define CY_CFG_UNUSED _Pragma("diag_suppress=Pe177")
  45:.\Generated_Source\PSoC4/cyfitter_cfg.c ****     #define CY_CFG_SECTION _Pragma("location=\".psocinit\"")
  46:.\Generated_Source\PSoC4/cyfitter_cfg.c ****     
  47:.\Generated_Source\PSoC4/cyfitter_cfg.c ****     #define CY_CFG_MEMORY_BARRIER() __DMB()
  48:.\Generated_Source\PSoC4/cyfitter_cfg.c ****     
  49:.\Generated_Source\PSoC4/cyfitter_cfg.c **** #else
  50:.\Generated_Source\PSoC4/cyfitter_cfg.c ****     #error Unsupported toolchain
  51:.\Generated_Source\PSoC4/cyfitter_cfg.c **** #endif
  52:.\Generated_Source\PSoC4/cyfitter_cfg.c **** 
  53:.\Generated_Source\PSoC4/cyfitter_cfg.c **** 
  54:.\Generated_Source\PSoC4/cyfitter_cfg.c **** CY_CFG_UNUSED
  55:.\Generated_Source\PSoC4/cyfitter_cfg.c **** static void CYMEMZERO(void *s, size_t n);
  56:.\Generated_Source\PSoC4/cyfitter_cfg.c **** CY_CFG_UNUSED
  57:.\Generated_Source\PSoC4/cyfitter_cfg.c **** static void CYMEMZERO(void *s, size_t n)
  58:.\Generated_Source\PSoC4/cyfitter_cfg.c **** {
  25              		.loc 1 58 0
  26              		.cfi_startproc
  27 0000 80B5     		push	{r7, lr}
  28              		.cfi_def_cfa_offset 8
  29              		.cfi_offset 7, -8
  30              		.cfi_offset 14, -4
  31 0002 82B0     		sub	sp, sp, #8
  32              		.cfi_def_cfa_offset 16
  33 0004 00AF     		add	r7, sp, #0
  34              		.cfi_def_cfa_register 7
  35 0006 7860     		str	r0, [r7, #4]
  36 0008 3960     		str	r1, [r7]
  59:.\Generated_Source\PSoC4/cyfitter_cfg.c **** 	(void)memset(s, 0, n);
  37              		.loc 1 59 0
  38 000a 7A68     		ldr	r2, [r7, #4]
  39 000c 3B68     		ldr	r3, [r7]
  40 000e 101C     		mov	r0, r2
  41 0010 0021     		mov	r1, #0
  42 0012 1A1C     		mov	r2, r3
  43 0014 FFF7FEFF 		bl	memset
  60:.\Generated_Source\PSoC4/cyfitter_cfg.c **** }
  44              		.loc 1 60 0
  45 0018 BD46     		mov	sp, r7
  46 001a 02B0     		add	sp, sp, #8
  47              		@ sp needed
  48 001c 80BD     		pop	{r7, pc}
  49              		.cfi_endproc
  50              	.LFE0:
  51              		.size	CYMEMZERO, .-CYMEMZERO
  52 001e C046     		.section	.text.CYCONFIGCPY,"ax",%progbits
  53              		.align	2
  54              		.code	16
ARM GAS  C:\Users\Samuel\AppData\Local\Temp\cckvrh5D.s 			page 3


  55              		.thumb_func
  56              		.type	CYCONFIGCPY, %function
  57              	CYCONFIGCPY:
  58              	.LFB1:
  61:.\Generated_Source\PSoC4/cyfitter_cfg.c **** CY_CFG_UNUSED
  62:.\Generated_Source\PSoC4/cyfitter_cfg.c **** static void CYCONFIGCPY(void *dest, const void *src, size_t n);
  63:.\Generated_Source\PSoC4/cyfitter_cfg.c **** CY_CFG_UNUSED
  64:.\Generated_Source\PSoC4/cyfitter_cfg.c **** static void CYCONFIGCPY(void *dest, const void *src, size_t n)
  65:.\Generated_Source\PSoC4/cyfitter_cfg.c **** {
  59              		.loc 1 65 0
  60              		.cfi_startproc
  61 0000 80B5     		push	{r7, lr}
  62              		.cfi_def_cfa_offset 8
  63              		.cfi_offset 7, -8
  64              		.cfi_offset 14, -4
  65 0002 84B0     		sub	sp, sp, #16
  66              		.cfi_def_cfa_offset 24
  67 0004 00AF     		add	r7, sp, #0
  68              		.cfi_def_cfa_register 7
  69 0006 F860     		str	r0, [r7, #12]
  70 0008 B960     		str	r1, [r7, #8]
  71 000a 7A60     		str	r2, [r7, #4]
  66:.\Generated_Source\PSoC4/cyfitter_cfg.c **** 	(void)memcpy(dest, src, n);
  72              		.loc 1 66 0
  73 000c F968     		ldr	r1, [r7, #12]
  74 000e BA68     		ldr	r2, [r7, #8]
  75 0010 7B68     		ldr	r3, [r7, #4]
  76 0012 081C     		mov	r0, r1
  77 0014 111C     		mov	r1, r2
  78 0016 1A1C     		mov	r2, r3
  79 0018 FFF7FEFF 		bl	memcpy
  67:.\Generated_Source\PSoC4/cyfitter_cfg.c **** }
  80              		.loc 1 67 0
  81 001c BD46     		mov	sp, r7
  82 001e 04B0     		add	sp, sp, #16
  83              		@ sp needed
  84 0020 80BD     		pop	{r7, pc}
  85              		.cfi_endproc
  86              	.LFE1:
  87              		.size	CYCONFIGCPY, .-CYCONFIGCPY
  88 0022 C046     		.section	.text.CYCONFIGCPYCODE,"ax",%progbits
  89              		.align	2
  90              		.code	16
  91              		.thumb_func
  92              		.type	CYCONFIGCPYCODE, %function
  93              	CYCONFIGCPYCODE:
  94              	.LFB2:
  68:.\Generated_Source\PSoC4/cyfitter_cfg.c **** CY_CFG_UNUSED
  69:.\Generated_Source\PSoC4/cyfitter_cfg.c **** static void CYCONFIGCPYCODE(void *dest, const void *src, size_t n);
  70:.\Generated_Source\PSoC4/cyfitter_cfg.c **** CY_CFG_UNUSED
  71:.\Generated_Source\PSoC4/cyfitter_cfg.c **** static void CYCONFIGCPYCODE(void *dest, const void *src, size_t n)
  72:.\Generated_Source\PSoC4/cyfitter_cfg.c **** {
  95              		.loc 1 72 0
  96              		.cfi_startproc
  97 0000 80B5     		push	{r7, lr}
  98              		.cfi_def_cfa_offset 8
  99              		.cfi_offset 7, -8
ARM GAS  C:\Users\Samuel\AppData\Local\Temp\cckvrh5D.s 			page 4


 100              		.cfi_offset 14, -4
 101 0002 84B0     		sub	sp, sp, #16
 102              		.cfi_def_cfa_offset 24
 103 0004 00AF     		add	r7, sp, #0
 104              		.cfi_def_cfa_register 7
 105 0006 F860     		str	r0, [r7, #12]
 106 0008 B960     		str	r1, [r7, #8]
 107 000a 7A60     		str	r2, [r7, #4]
  73:.\Generated_Source\PSoC4/cyfitter_cfg.c **** 	(void)memcpy(dest, src, n);
 108              		.loc 1 73 0
 109 000c F968     		ldr	r1, [r7, #12]
 110 000e BA68     		ldr	r2, [r7, #8]
 111 0010 7B68     		ldr	r3, [r7, #4]
 112 0012 081C     		mov	r0, r1
 113 0014 111C     		mov	r1, r2
 114 0016 1A1C     		mov	r2, r3
 115 0018 FFF7FEFF 		bl	memcpy
  74:.\Generated_Source\PSoC4/cyfitter_cfg.c **** }
 116              		.loc 1 74 0
 117 001c BD46     		mov	sp, r7
 118 001e 04B0     		add	sp, sp, #16
 119              		@ sp needed
 120 0020 80BD     		pop	{r7, pc}
 121              		.cfi_endproc
 122              	.LFE2:
 123              		.size	CYCONFIGCPYCODE, .-CYCONFIGCPYCODE
 124 0022 C046     		.section	.text.cfg_write_bytes32,"ax",%progbits
 125              		.align	2
 126              		.code	16
 127              		.thumb_func
 128              		.type	cfg_write_bytes32, %function
 129              	cfg_write_bytes32:
 130              	.LFB3:
  75:.\Generated_Source\PSoC4/cyfitter_cfg.c **** 
  76:.\Generated_Source\PSoC4/cyfitter_cfg.c **** 
  77:.\Generated_Source\PSoC4/cyfitter_cfg.c **** 
  78:.\Generated_Source\PSoC4/cyfitter_cfg.c **** /* Clock startup error codes                                                   */
  79:.\Generated_Source\PSoC4/cyfitter_cfg.c **** #define CYCLOCKSTART_NO_ERROR    0u
  80:.\Generated_Source\PSoC4/cyfitter_cfg.c **** #define CYCLOCKSTART_XTAL_ERROR  1u
  81:.\Generated_Source\PSoC4/cyfitter_cfg.c **** #define CYCLOCKSTART_32KHZ_ERROR 2u
  82:.\Generated_Source\PSoC4/cyfitter_cfg.c **** #define CYCLOCKSTART_PLL_ERROR   3u
  83:.\Generated_Source\PSoC4/cyfitter_cfg.c **** 
  84:.\Generated_Source\PSoC4/cyfitter_cfg.c **** #ifdef CY_NEED_CYCLOCKSTARTUPERROR
  85:.\Generated_Source\PSoC4/cyfitter_cfg.c **** /*******************************************************************************
  86:.\Generated_Source\PSoC4/cyfitter_cfg.c **** * Function Name: CyClockStartupError
  87:.\Generated_Source\PSoC4/cyfitter_cfg.c **** ********************************************************************************
  88:.\Generated_Source\PSoC4/cyfitter_cfg.c **** * Summary:
  89:.\Generated_Source\PSoC4/cyfitter_cfg.c **** *  If an error is encountered during clock configuration (crystal startup error,
  90:.\Generated_Source\PSoC4/cyfitter_cfg.c **** *  PLL lock error, etc.), the system will end up here.  Unless reimplemented by
  91:.\Generated_Source\PSoC4/cyfitter_cfg.c **** *  the customer, this function will stop in an infinite loop.
  92:.\Generated_Source\PSoC4/cyfitter_cfg.c **** *
  93:.\Generated_Source\PSoC4/cyfitter_cfg.c **** * Parameters:
  94:.\Generated_Source\PSoC4/cyfitter_cfg.c **** *   void
  95:.\Generated_Source\PSoC4/cyfitter_cfg.c **** *
  96:.\Generated_Source\PSoC4/cyfitter_cfg.c **** * Return:
  97:.\Generated_Source\PSoC4/cyfitter_cfg.c **** *   void
  98:.\Generated_Source\PSoC4/cyfitter_cfg.c **** *
ARM GAS  C:\Users\Samuel\AppData\Local\Temp\cckvrh5D.s 			page 5


  99:.\Generated_Source\PSoC4/cyfitter_cfg.c **** *******************************************************************************/
 100:.\Generated_Source\PSoC4/cyfitter_cfg.c **** CY_CFG_UNUSED
 101:.\Generated_Source\PSoC4/cyfitter_cfg.c **** static void CyClockStartupError(uint8 errorCode);
 102:.\Generated_Source\PSoC4/cyfitter_cfg.c **** CY_CFG_UNUSED
 103:.\Generated_Source\PSoC4/cyfitter_cfg.c **** static void CyClockStartupError(uint8 errorCode)
 104:.\Generated_Source\PSoC4/cyfitter_cfg.c **** {
 105:.\Generated_Source\PSoC4/cyfitter_cfg.c ****     /* To remove the compiler warning if errorCode not used.                */
 106:.\Generated_Source\PSoC4/cyfitter_cfg.c ****     errorCode = errorCode;
 107:.\Generated_Source\PSoC4/cyfitter_cfg.c **** 
 108:.\Generated_Source\PSoC4/cyfitter_cfg.c ****     /* `#START CyClockStartupError` */
 109:.\Generated_Source\PSoC4/cyfitter_cfg.c **** 
 110:.\Generated_Source\PSoC4/cyfitter_cfg.c ****     /* If we have a clock startup error (bad MHz crystal, PLL lock, etc.),  */
 111:.\Generated_Source\PSoC4/cyfitter_cfg.c ****     /* we will end up here to allow the customer to implement something to  */
 112:.\Generated_Source\PSoC4/cyfitter_cfg.c ****     /* deal with the clock condition.                                       */
 113:.\Generated_Source\PSoC4/cyfitter_cfg.c **** 
 114:.\Generated_Source\PSoC4/cyfitter_cfg.c ****     /* `#END` */
 115:.\Generated_Source\PSoC4/cyfitter_cfg.c **** 
 116:.\Generated_Source\PSoC4/cyfitter_cfg.c ****     /* If nothing else, stop here since the clocks have not started         */
 117:.\Generated_Source\PSoC4/cyfitter_cfg.c ****     /* correctly.                                                           */
 118:.\Generated_Source\PSoC4/cyfitter_cfg.c ****     while(1) {}
 119:.\Generated_Source\PSoC4/cyfitter_cfg.c **** }
 120:.\Generated_Source\PSoC4/cyfitter_cfg.c **** #endif
 121:.\Generated_Source\PSoC4/cyfitter_cfg.c **** 
 122:.\Generated_Source\PSoC4/cyfitter_cfg.c **** #define CY_CFG_BASE_ADDR_COUNT 10u
 123:.\Generated_Source\PSoC4/cyfitter_cfg.c **** CYPACKED typedef struct
 124:.\Generated_Source\PSoC4/cyfitter_cfg.c **** {
 125:.\Generated_Source\PSoC4/cyfitter_cfg.c **** 	uint8 offset;
 126:.\Generated_Source\PSoC4/cyfitter_cfg.c **** 	uint8 value;
 127:.\Generated_Source\PSoC4/cyfitter_cfg.c **** } CYPACKED_ATTR cy_cfg_addrvalue_t;
 128:.\Generated_Source\PSoC4/cyfitter_cfg.c **** 
 129:.\Generated_Source\PSoC4/cyfitter_cfg.c **** 
 130:.\Generated_Source\PSoC4/cyfitter_cfg.c **** 
 131:.\Generated_Source\PSoC4/cyfitter_cfg.c **** /*******************************************************************************
 132:.\Generated_Source\PSoC4/cyfitter_cfg.c **** * Function Name: cfg_write_bytes32
 133:.\Generated_Source\PSoC4/cyfitter_cfg.c **** ********************************************************************************
 134:.\Generated_Source\PSoC4/cyfitter_cfg.c **** * Summary:
 135:.\Generated_Source\PSoC4/cyfitter_cfg.c **** *  This function is used for setting up the chip configuration areas that
 136:.\Generated_Source\PSoC4/cyfitter_cfg.c **** *  contain relatively sparse data.
 137:.\Generated_Source\PSoC4/cyfitter_cfg.c **** *
 138:.\Generated_Source\PSoC4/cyfitter_cfg.c **** * Parameters:
 139:.\Generated_Source\PSoC4/cyfitter_cfg.c **** *   void
 140:.\Generated_Source\PSoC4/cyfitter_cfg.c **** *
 141:.\Generated_Source\PSoC4/cyfitter_cfg.c **** * Return:
 142:.\Generated_Source\PSoC4/cyfitter_cfg.c **** *   void
 143:.\Generated_Source\PSoC4/cyfitter_cfg.c **** *
 144:.\Generated_Source\PSoC4/cyfitter_cfg.c **** *******************************************************************************/
 145:.\Generated_Source\PSoC4/cyfitter_cfg.c **** static void cfg_write_bytes32(const uint32 addr_table[], const cy_cfg_addrvalue_t data_table[]);
 146:.\Generated_Source\PSoC4/cyfitter_cfg.c **** static void cfg_write_bytes32(const uint32 addr_table[], const cy_cfg_addrvalue_t data_table[])
 147:.\Generated_Source\PSoC4/cyfitter_cfg.c **** {
 131              		.loc 1 147 0
 132              		.cfi_startproc
 133 0000 80B5     		push	{r7, lr}
 134              		.cfi_def_cfa_offset 8
 135              		.cfi_offset 7, -8
 136              		.cfi_offset 14, -4
 137 0002 86B0     		sub	sp, sp, #24
 138              		.cfi_def_cfa_offset 32
ARM GAS  C:\Users\Samuel\AppData\Local\Temp\cckvrh5D.s 			page 6


 139 0004 00AF     		add	r7, sp, #0
 140              		.cfi_def_cfa_register 7
 141 0006 7860     		str	r0, [r7, #4]
 142 0008 3960     		str	r1, [r7]
 148:.\Generated_Source\PSoC4/cyfitter_cfg.c **** 	/* For 32-bit little-endian architectures */
 149:.\Generated_Source\PSoC4/cyfitter_cfg.c **** 	uint32 i, j = 0u;
 143              		.loc 1 149 0
 144 000a 0023     		mov	r3, #0
 145 000c 3B61     		str	r3, [r7, #16]
 150:.\Generated_Source\PSoC4/cyfitter_cfg.c **** 	for (i = 0u; i < CY_CFG_BASE_ADDR_COUNT; i++)
 146              		.loc 1 150 0
 147 000e 0023     		mov	r3, #0
 148 0010 7B61     		str	r3, [r7, #20]
 149 0012 2EE0     		b	.L5
 150              	.L8:
 151              	.LBB2:
 151:.\Generated_Source\PSoC4/cyfitter_cfg.c **** 	{
 152:.\Generated_Source\PSoC4/cyfitter_cfg.c **** 		uint32 baseAddr = addr_table[i];
 152              		.loc 1 152 0
 153 0014 7B69     		ldr	r3, [r7, #20]
 154 0016 9B00     		lsl	r3, r3, #2
 155 0018 7A68     		ldr	r2, [r7, #4]
 156 001a D318     		add	r3, r2, r3
 157 001c 1B68     		ldr	r3, [r3]
 158 001e BB60     		str	r3, [r7, #8]
 153:.\Generated_Source\PSoC4/cyfitter_cfg.c **** 		uint8 count = (uint8)baseAddr;
 159              		.loc 1 153 0
 160 0020 3B1C     		mov	r3, r7
 161 0022 0F33     		add	r3, r3, #15
 162 0024 BA68     		ldr	r2, [r7, #8]
 163 0026 1A70     		strb	r2, [r3]
 154:.\Generated_Source\PSoC4/cyfitter_cfg.c **** 		baseAddr &= 0xFFFFFF00u;
 164              		.loc 1 154 0
 165 0028 BB68     		ldr	r3, [r7, #8]
 166 002a FF22     		mov	r2, #255
 167 002c 9343     		bic	r3, r2
 168 002e BB60     		str	r3, [r7, #8]
 155:.\Generated_Source\PSoC4/cyfitter_cfg.c **** 		while (count != 0u)
 169              		.loc 1 155 0
 170 0030 17E0     		b	.L6
 171              	.L7:
 156:.\Generated_Source\PSoC4/cyfitter_cfg.c **** 		{
 157:.\Generated_Source\PSoC4/cyfitter_cfg.c **** 			CY_SET_XTND_REG8((void CYFAR *)(baseAddr + data_table[j].offset), data_table[j].value);
 172              		.loc 1 157 0
 173 0032 3B69     		ldr	r3, [r7, #16]
 174 0034 5B00     		lsl	r3, r3, #1
 175 0036 3A68     		ldr	r2, [r7]
 176 0038 D318     		add	r3, r2, r3
 177 003a 1B78     		ldrb	r3, [r3]
 178 003c 1A1C     		mov	r2, r3
 179 003e BB68     		ldr	r3, [r7, #8]
 180 0040 D318     		add	r3, r2, r3
 181 0042 3A69     		ldr	r2, [r7, #16]
 182 0044 5200     		lsl	r2, r2, #1
 183 0046 3968     		ldr	r1, [r7]
 184 0048 8A18     		add	r2, r1, r2
 185 004a 5278     		ldrb	r2, [r2, #1]
ARM GAS  C:\Users\Samuel\AppData\Local\Temp\cckvrh5D.s 			page 7


 186 004c 1A70     		strb	r2, [r3]
 158:.\Generated_Source\PSoC4/cyfitter_cfg.c **** 			j++;
 187              		.loc 1 158 0
 188 004e 3B69     		ldr	r3, [r7, #16]
 189 0050 0133     		add	r3, r3, #1
 190 0052 3B61     		str	r3, [r7, #16]
 159:.\Generated_Source\PSoC4/cyfitter_cfg.c **** 			count--;
 191              		.loc 1 159 0
 192 0054 3B1C     		mov	r3, r7
 193 0056 0F33     		add	r3, r3, #15
 194 0058 1A78     		ldrb	r2, [r3]
 195 005a 3B1C     		mov	r3, r7
 196 005c 0F33     		add	r3, r3, #15
 197 005e 013A     		sub	r2, r2, #1
 198 0060 1A70     		strb	r2, [r3]
 199              	.L6:
 155:.\Generated_Source\PSoC4/cyfitter_cfg.c **** 		while (count != 0u)
 200              		.loc 1 155 0 discriminator 1
 201 0062 3B1C     		mov	r3, r7
 202 0064 0F33     		add	r3, r3, #15
 203 0066 1B78     		ldrb	r3, [r3]
 204 0068 002B     		cmp	r3, #0
 205 006a E2D1     		bne	.L7
 206              	.LBE2:
 150:.\Generated_Source\PSoC4/cyfitter_cfg.c **** 	for (i = 0u; i < CY_CFG_BASE_ADDR_COUNT; i++)
 207              		.loc 1 150 0
 208 006c 7B69     		ldr	r3, [r7, #20]
 209 006e 0133     		add	r3, r3, #1
 210 0070 7B61     		str	r3, [r7, #20]
 211              	.L5:
 150:.\Generated_Source\PSoC4/cyfitter_cfg.c **** 	for (i = 0u; i < CY_CFG_BASE_ADDR_COUNT; i++)
 212              		.loc 1 150 0 is_stmt 0 discriminator 1
 213 0072 7B69     		ldr	r3, [r7, #20]
 214 0074 092B     		cmp	r3, #9
 215 0076 CDD9     		bls	.L8
 160:.\Generated_Source\PSoC4/cyfitter_cfg.c **** 		}
 161:.\Generated_Source\PSoC4/cyfitter_cfg.c **** 	}
 162:.\Generated_Source\PSoC4/cyfitter_cfg.c **** }
 216              		.loc 1 162 0 is_stmt 1
 217 0078 BD46     		mov	sp, r7
 218 007a 06B0     		add	sp, sp, #24
 219              		@ sp needed
 220 007c 80BD     		pop	{r7, pc}
 221              		.cfi_endproc
 222              	.LFE3:
 223              		.size	cfg_write_bytes32, .-cfg_write_bytes32
 224 007e C046     		.section	.psocinit,"ax",%progbits
 225              		.align	2
 226              		.code	16
 227              		.thumb_func
 228              		.type	SetIMOBGTrims, %function
 229              	SetIMOBGTrims:
 230              	.LFB4:
 163:.\Generated_Source\PSoC4/cyfitter_cfg.c **** 
 164:.\Generated_Source\PSoC4/cyfitter_cfg.c **** /*******************************************************************************
 165:.\Generated_Source\PSoC4/cyfitter_cfg.c **** * Function Name: SetIMOBGTrims
 166:.\Generated_Source\PSoC4/cyfitter_cfg.c **** ********************************************************************************
ARM GAS  C:\Users\Samuel\AppData\Local\Temp\cckvrh5D.s 			page 8


 167:.\Generated_Source\PSoC4/cyfitter_cfg.c **** *
 168:.\Generated_Source\PSoC4/cyfitter_cfg.c **** * Summary:
 169:.\Generated_Source\PSoC4/cyfitter_cfg.c **** *   Performs the configuration of the bandgap trim for the IMO based on the given
 170:.\Generated_Source\PSoC4/cyfitter_cfg.c **** *   expected frequency of the IMO. 
 171:.\Generated_Source\PSoC4/cyfitter_cfg.c **** *
 172:.\Generated_Source\PSoC4/cyfitter_cfg.c **** * Parameters:
 173:.\Generated_Source\PSoC4/cyfitter_cfg.c **** *   imoFreq: Frequency for operation of the IMO.
 174:.\Generated_Source\PSoC4/cyfitter_cfg.c **** *
 175:.\Generated_Source\PSoC4/cyfitter_cfg.c **** * Return:
 176:.\Generated_Source\PSoC4/cyfitter_cfg.c **** *   void
 177:.\Generated_Source\PSoC4/cyfitter_cfg.c **** *
 178:.\Generated_Source\PSoC4/cyfitter_cfg.c **** *******************************************************************************/
 179:.\Generated_Source\PSoC4/cyfitter_cfg.c **** static void SetIMOBGTrims(uint8 imoFreq);
 180:.\Generated_Source\PSoC4/cyfitter_cfg.c **** CY_CFG_SECTION
 181:.\Generated_Source\PSoC4/cyfitter_cfg.c **** static void SetIMOBGTrims(uint8 imoFreq)
 182:.\Generated_Source\PSoC4/cyfitter_cfg.c **** {
 231              		.loc 1 182 0
 232              		.cfi_startproc
 233 0000 80B5     		push	{r7, lr}
 234              		.cfi_def_cfa_offset 8
 235              		.cfi_offset 7, -8
 236              		.cfi_offset 14, -4
 237 0002 84B0     		sub	sp, sp, #16
 238              		.cfi_def_cfa_offset 24
 239 0004 00AF     		add	r7, sp, #0
 240              		.cfi_def_cfa_register 7
 241 0006 021C     		mov	r2, r0
 242 0008 FB1D     		add	r3, r7, #7
 243 000a 1A70     		strb	r2, [r3]
 183:.\Generated_Source\PSoC4/cyfitter_cfg.c **** 	CYPACKED typedef struct {
 184:.\Generated_Source\PSoC4/cyfitter_cfg.c **** 		uint8 freq;
 185:.\Generated_Source\PSoC4/cyfitter_cfg.c **** 		uint8 absolute;
 186:.\Generated_Source\PSoC4/cyfitter_cfg.c **** 		uint8 tmpco;
 187:.\Generated_Source\PSoC4/cyfitter_cfg.c **** 	} CYPACKED_ATTR imo_trim_entry_t;
 188:.\Generated_Source\PSoC4/cyfitter_cfg.c **** 
 189:.\Generated_Source\PSoC4/cyfitter_cfg.c **** 	CYPACKED typedef struct {
 190:.\Generated_Source\PSoC4/cyfitter_cfg.c **** 		imo_trim_entry_t entries[4];
 191:.\Generated_Source\PSoC4/cyfitter_cfg.c **** 	} CYPACKED_ATTR imo_trim_table_t;
 192:.\Generated_Source\PSoC4/cyfitter_cfg.c **** 
 193:.\Generated_Source\PSoC4/cyfitter_cfg.c **** 	static const imo_trim_table_t *imo_trim_table = (const imo_trim_table_t *)CYREG_SFLASH_IMO_MAXF0;
 194:.\Generated_Source\PSoC4/cyfitter_cfg.c **** 	static const uint32 IMO_TRIM_FREQ_TABLE_ENTRIES = sizeof(imo_trim_table->entries)/sizeof(imo_trim_
 195:.\Generated_Source\PSoC4/cyfitter_cfg.c **** 
 196:.\Generated_Source\PSoC4/cyfitter_cfg.c **** 	int32 imoTrimIndex;
 197:.\Generated_Source\PSoC4/cyfitter_cfg.c **** 	uint8 setAbs;
 198:.\Generated_Source\PSoC4/cyfitter_cfg.c **** 	uint8 setTmpCo;
 199:.\Generated_Source\PSoC4/cyfitter_cfg.c **** 
 200:.\Generated_Source\PSoC4/cyfitter_cfg.c **** 	/* Traverse the SFLASH IMO frequency-dependent bandgap trim table to
 201:.\Generated_Source\PSoC4/cyfitter_cfg.c **** 	 * locate the appropriate value to trim the IMO bandgap based on freq. */
 202:.\Generated_Source\PSoC4/cyfitter_cfg.c **** 	setAbs = CY_GET_REG8((const void *)CYREG_SFLASH_IMO_ABS4);
 244              		.loc 1 202 0
 245 000c 204A     		ldr	r2, .L13
 246 000e 3B1C     		mov	r3, r7
 247 0010 0B33     		add	r3, r3, #11
 248 0012 1278     		ldrb	r2, [r2]
 249 0014 1A70     		strb	r2, [r3]
 203:.\Generated_Source\PSoC4/cyfitter_cfg.c **** 	setTmpCo = CY_GET_REG8((const void *)CYREG_SFLASH_IMO_TMPCO4);
 250              		.loc 1 203 0
ARM GAS  C:\Users\Samuel\AppData\Local\Temp\cckvrh5D.s 			page 9


 251 0016 1F4A     		ldr	r2, .L13+4
 252 0018 3B1C     		mov	r3, r7
 253 001a 0A33     		add	r3, r3, #10
 254 001c 1278     		ldrb	r2, [r2]
 255 001e 1A70     		strb	r2, [r3]
 204:.\Generated_Source\PSoC4/cyfitter_cfg.c **** 	for (imoTrimIndex = ((int32)IMO_TRIM_FREQ_TABLE_ENTRIES)-1;
 256              		.loc 1 204 0
 257 0020 0423     		mov	r3, #4
 258 0022 013B     		sub	r3, r3, #1
 259 0024 FB60     		str	r3, [r7, #12]
 260 0026 18E0     		b	.L10
 261              	.L12:
 205:.\Generated_Source\PSoC4/cyfitter_cfg.c **** 	     (imoTrimIndex >= 0) && (imoFreq <= imo_trim_table->entries[imoTrimIndex].freq);
 206:.\Generated_Source\PSoC4/cyfitter_cfg.c **** 	     imoTrimIndex--)
 207:.\Generated_Source\PSoC4/cyfitter_cfg.c **** 	{
 208:.\Generated_Source\PSoC4/cyfitter_cfg.c **** 		setAbs = imo_trim_table->entries[imoTrimIndex].absolute;
 262              		.loc 1 208 0
 263 0028 1B4B     		ldr	r3, .L13+8
 264 002a 1868     		ldr	r0, [r3]
 265 002c 391C     		mov	r1, r7
 266 002e 0B31     		add	r1, r1, #11
 267 0030 FA68     		ldr	r2, [r7, #12]
 268 0032 131C     		mov	r3, r2
 269 0034 5B00     		lsl	r3, r3, #1
 270 0036 9B18     		add	r3, r3, r2
 271 0038 C318     		add	r3, r0, r3
 272 003a 5B78     		ldrb	r3, [r3, #1]
 273 003c 0B70     		strb	r3, [r1]
 209:.\Generated_Source\PSoC4/cyfitter_cfg.c **** 		setTmpCo = imo_trim_table->entries[imoTrimIndex].tmpco;
 274              		.loc 1 209 0
 275 003e 164B     		ldr	r3, .L13+8
 276 0040 1868     		ldr	r0, [r3]
 277 0042 391C     		mov	r1, r7
 278 0044 0A31     		add	r1, r1, #10
 279 0046 FA68     		ldr	r2, [r7, #12]
 280 0048 131C     		mov	r3, r2
 281 004a 5B00     		lsl	r3, r3, #1
 282 004c 9B18     		add	r3, r3, r2
 283 004e C318     		add	r3, r0, r3
 284 0050 9B78     		ldrb	r3, [r3, #2]
 285 0052 0B70     		strb	r3, [r1]
 206:.\Generated_Source\PSoC4/cyfitter_cfg.c **** 	     imoTrimIndex--)
 286              		.loc 1 206 0
 287 0054 FB68     		ldr	r3, [r7, #12]
 288 0056 013B     		sub	r3, r3, #1
 289 0058 FB60     		str	r3, [r7, #12]
 290              	.L10:
 204:.\Generated_Source\PSoC4/cyfitter_cfg.c **** 	for (imoTrimIndex = ((int32)IMO_TRIM_FREQ_TABLE_ENTRIES)-1;
 291              		.loc 1 204 0 discriminator 1
 292 005a FB68     		ldr	r3, [r7, #12]
 293 005c 002B     		cmp	r3, #0
 294 005e 0ADB     		blt	.L11
 205:.\Generated_Source\PSoC4/cyfitter_cfg.c **** 	     (imoTrimIndex >= 0) && (imoFreq <= imo_trim_table->entries[imoTrimIndex].freq);
 295              		.loc 1 205 0
 296 0060 0D4B     		ldr	r3, .L13+8
 297 0062 1968     		ldr	r1, [r3]
 298 0064 FA68     		ldr	r2, [r7, #12]
ARM GAS  C:\Users\Samuel\AppData\Local\Temp\cckvrh5D.s 			page 10


 299 0066 131C     		mov	r3, r2
 300 0068 5B00     		lsl	r3, r3, #1
 301 006a 9B18     		add	r3, r3, r2
 302 006c 5B5C     		ldrb	r3, [r3, r1]
 303 006e FA1D     		add	r2, r7, #7
 304 0070 1278     		ldrb	r2, [r2]
 305 0072 9A42     		cmp	r2, r3
 306 0074 D8D9     		bls	.L12
 307              	.L11:
 210:.\Generated_Source\PSoC4/cyfitter_cfg.c **** 	}
 211:.\Generated_Source\PSoC4/cyfitter_cfg.c **** 
 212:.\Generated_Source\PSoC4/cyfitter_cfg.c **** 	CY_SET_REG32((void *)CYREG_PWR_BG_TRIM4, setAbs);
 308              		.loc 1 212 0
 309 0076 094B     		ldr	r3, .L13+12
 310 0078 3A1C     		mov	r2, r7
 311 007a 0B32     		add	r2, r2, #11
 312 007c 1278     		ldrb	r2, [r2]
 313 007e 1A60     		str	r2, [r3]
 213:.\Generated_Source\PSoC4/cyfitter_cfg.c **** 	CY_SET_REG32((void *)CYREG_PWR_BG_TRIM5, setTmpCo);
 314              		.loc 1 213 0
 315 0080 074B     		ldr	r3, .L13+16
 316 0082 3A1C     		mov	r2, r7
 317 0084 0A32     		add	r2, r2, #10
 318 0086 1278     		ldrb	r2, [r2]
 319 0088 1A60     		str	r2, [r3]
 214:.\Generated_Source\PSoC4/cyfitter_cfg.c **** }
 320              		.loc 1 214 0
 321 008a BD46     		mov	sp, r7
 322 008c 04B0     		add	sp, sp, #16
 323              		@ sp needed
 324 008e 80BD     		pop	{r7, pc}
 325              	.L14:
 326              		.align	2
 327              	.L13:
 328 0090 CCF1FF0F 		.word	268431820
 329 0094 CDF1FF0F 		.word	268431821
 330 0098 00000000 		.word	imo_trim_table.4710
 331 009c 1CFF0B40 		.word	1074528028
 332 00a0 20FF0B40 		.word	1074528032
 333              		.cfi_endproc
 334              	.LFE4:
 335              		.size	SetIMOBGTrims, .-SetIMOBGTrims
 336              		.align	2
 337              		.code	16
 338              		.thumb_func
 339              		.type	ClockSetup, %function
 340              	ClockSetup:
 341              	.LFB5:
 215:.\Generated_Source\PSoC4/cyfitter_cfg.c **** 
 216:.\Generated_Source\PSoC4/cyfitter_cfg.c **** 
 217:.\Generated_Source\PSoC4/cyfitter_cfg.c **** 
 218:.\Generated_Source\PSoC4/cyfitter_cfg.c **** /*******************************************************************************
 219:.\Generated_Source\PSoC4/cyfitter_cfg.c **** * Function Name: ClockSetup
 220:.\Generated_Source\PSoC4/cyfitter_cfg.c **** ********************************************************************************
 221:.\Generated_Source\PSoC4/cyfitter_cfg.c **** *
 222:.\Generated_Source\PSoC4/cyfitter_cfg.c **** * Summary:
 223:.\Generated_Source\PSoC4/cyfitter_cfg.c **** *   Performs the initialization of all of the clocks in the device based on the
ARM GAS  C:\Users\Samuel\AppData\Local\Temp\cckvrh5D.s 			page 11


 224:.\Generated_Source\PSoC4/cyfitter_cfg.c **** *   settings in the Clock tab of the DWR.  This includes enabling the requested
 225:.\Generated_Source\PSoC4/cyfitter_cfg.c **** *   clocks and setting the necessary dividers to produce the desired frequency. 
 226:.\Generated_Source\PSoC4/cyfitter_cfg.c **** *
 227:.\Generated_Source\PSoC4/cyfitter_cfg.c **** * Parameters:
 228:.\Generated_Source\PSoC4/cyfitter_cfg.c **** *   void
 229:.\Generated_Source\PSoC4/cyfitter_cfg.c **** *
 230:.\Generated_Source\PSoC4/cyfitter_cfg.c **** * Return:
 231:.\Generated_Source\PSoC4/cyfitter_cfg.c **** *   void
 232:.\Generated_Source\PSoC4/cyfitter_cfg.c **** *
 233:.\Generated_Source\PSoC4/cyfitter_cfg.c **** *******************************************************************************/
 234:.\Generated_Source\PSoC4/cyfitter_cfg.c **** static void ClockSetup(void);
 235:.\Generated_Source\PSoC4/cyfitter_cfg.c **** CY_CFG_SECTION
 236:.\Generated_Source\PSoC4/cyfitter_cfg.c **** static void ClockSetup(void)
 237:.\Generated_Source\PSoC4/cyfitter_cfg.c **** {
 342              		.loc 1 237 0
 343              		.cfi_startproc
 344 00a4 80B5     		push	{r7, lr}
 345              		.cfi_def_cfa_offset 8
 346              		.cfi_offset 7, -8
 347              		.cfi_offset 14, -4
 348 00a6 00AF     		add	r7, sp, #0
 349              		.cfi_def_cfa_register 7
 238:.\Generated_Source\PSoC4/cyfitter_cfg.c **** 	/* Enable HALF_EN before trimming for the flash accelerator. */
 239:.\Generated_Source\PSoC4/cyfitter_cfg.c **** 	CY_SET_REG32((void CYXDATA *)(CYREG_CLK_SELECT), (CY_GET_REG32((void *)CYREG_CLK_SELECT) | 0x00040
 350              		.loc 1 239 0
 351 00a8 294B     		ldr	r3, .L16
 352 00aa 294A     		ldr	r2, .L16
 353 00ac 1268     		ldr	r2, [r2]
 354 00ae 8021     		mov	r1, #128
 355 00b0 C902     		lsl	r1, r1, #11
 356 00b2 0A43     		orr	r2, r1
 357 00b4 1A60     		str	r2, [r3]
 240:.\Generated_Source\PSoC4/cyfitter_cfg.c **** 
 241:.\Generated_Source\PSoC4/cyfitter_cfg.c **** 	/* Trim IMO BG based on desired frequency. */
 242:.\Generated_Source\PSoC4/cyfitter_cfg.c **** 	SetIMOBGTrims(24u);
 358              		.loc 1 242 0
 359 00b6 1820     		mov	r0, #24
 360 00b8 FFF7A2FF 		bl	SetIMOBGTrims
 243:.\Generated_Source\PSoC4/cyfitter_cfg.c **** 
 244:.\Generated_Source\PSoC4/cyfitter_cfg.c **** 	/* Going less than or equal to 24MHz, so update the clock speed then adjust trim value. */
 245:.\Generated_Source\PSoC4/cyfitter_cfg.c **** 	CY_SET_REG32((void CYXDATA *)(CYREG_CLK_IMO_TRIM2), (25u));
 361              		.loc 1 245 0
 362 00bc 254B     		ldr	r3, .L16+4
 363 00be 1922     		mov	r2, #25
 364 00c0 1A60     		str	r2, [r3]
 246:.\Generated_Source\PSoC4/cyfitter_cfg.c **** 	CyDelayCycles(5u);
 365              		.loc 1 246 0
 366 00c2 0520     		mov	r0, #5
 367 00c4 FFF7FEFF 		bl	CyDelayCycles
 247:.\Generated_Source\PSoC4/cyfitter_cfg.c **** 	CY_SET_REG32((void CYXDATA *)(CYREG_CLK_IMO_TRIM1), (CY_GET_REG8((void *)CYREG_SFLASH_IMO_TRIM21))
 368              		.loc 1 247 0
 369 00c8 234B     		ldr	r3, .L16+8
 370 00ca 244A     		ldr	r2, .L16+12
 371 00cc 1278     		ldrb	r2, [r2]
 372 00ce D2B2     		uxtb	r2, r2
 373 00d0 1A60     		str	r2, [r3]
 248:.\Generated_Source\PSoC4/cyfitter_cfg.c **** 	CyDelayUs(5u);
ARM GAS  C:\Users\Samuel\AppData\Local\Temp\cckvrh5D.s 			page 12


 374              		.loc 1 248 0
 375 00d2 0520     		mov	r0, #5
 376 00d4 FFF7FEFF 		bl	CyDelayUs
 249:.\Generated_Source\PSoC4/cyfitter_cfg.c **** 
 250:.\Generated_Source\PSoC4/cyfitter_cfg.c **** 	/* Disable HALF_EN since it is not required at this IMO frequency. */
 251:.\Generated_Source\PSoC4/cyfitter_cfg.c **** 	CY_SET_REG32((void CYXDATA *)(CYREG_CLK_SELECT), (CY_GET_REG32((void *)CYREG_CLK_SELECT) & 0xFFFBF
 377              		.loc 1 251 0
 378 00d8 1D4B     		ldr	r3, .L16
 379 00da 1D4A     		ldr	r2, .L16
 380 00dc 1168     		ldr	r1, [r2]
 381 00de 204A     		ldr	r2, .L16+16
 382 00e0 0A40     		and	r2, r1
 383 00e2 1A60     		str	r2, [r3]
 252:.\Generated_Source\PSoC4/cyfitter_cfg.c **** 	/* CYDEV_CLK_ILO_CONFIG Starting address: CYDEV_CLK_ILO_CONFIG */
 253:.\Generated_Source\PSoC4/cyfitter_cfg.c **** 	CY_SET_XTND_REG32((void CYFAR *)(CYREG_CLK_ILO_CONFIG), 0x80000006u);
 384              		.loc 1 253 0
 385 00e4 1F4B     		ldr	r3, .L16+20
 386 00e6 204A     		ldr	r2, .L16+24
 387 00e8 1A60     		str	r2, [r3]
 254:.\Generated_Source\PSoC4/cyfitter_cfg.c **** 
 255:.\Generated_Source\PSoC4/cyfitter_cfg.c **** 
 256:.\Generated_Source\PSoC4/cyfitter_cfg.c **** 	/* CYDEV_CLK_SELECT00 Starting address: CYDEV_CLK_SELECT00 */
 257:.\Generated_Source\PSoC4/cyfitter_cfg.c **** 	CY_SET_XTND_REG32((void CYFAR *)(CYREG_CLK_SELECT02), 0x00000030u);
 388              		.loc 1 257 0
 389 00ea 204B     		ldr	r3, .L16+28
 390 00ec 3022     		mov	r2, #48
 391 00ee 1A60     		str	r2, [r3]
 258:.\Generated_Source\PSoC4/cyfitter_cfg.c **** 	CY_SET_XTND_REG32((void CYFAR *)(CYREG_CLK_SELECT03), 0x00000020u);
 392              		.loc 1 258 0
 393 00f0 1F4B     		ldr	r3, .L16+32
 394 00f2 2022     		mov	r2, #32
 395 00f4 1A60     		str	r2, [r3]
 259:.\Generated_Source\PSoC4/cyfitter_cfg.c **** 	CY_SET_XTND_REG32((void CYFAR *)(CYREG_CLK_SELECT07), 0x00000021u);
 396              		.loc 1 259 0
 397 00f6 1F4B     		ldr	r3, .L16+36
 398 00f8 2122     		mov	r2, #33
 399 00fa 1A60     		str	r2, [r3]
 260:.\Generated_Source\PSoC4/cyfitter_cfg.c **** 	CY_SET_XTND_REG32((void CYFAR *)(CYREG_CLK_SELECT08), 0x00000031u);
 400              		.loc 1 260 0
 401 00fc 1E4B     		ldr	r3, .L16+40
 402 00fe 3122     		mov	r2, #49
 403 0100 1A60     		str	r2, [r3]
 261:.\Generated_Source\PSoC4/cyfitter_cfg.c **** 	CY_SET_XTND_REG32((void CYFAR *)(CYREG_CLK_SELECT09), 0x00000031u);
 404              		.loc 1 261 0
 405 0102 1E4B     		ldr	r3, .L16+44
 406 0104 3122     		mov	r2, #49
 407 0106 1A60     		str	r2, [r3]
 262:.\Generated_Source\PSoC4/cyfitter_cfg.c **** 	CY_SET_XTND_REG32((void CYFAR *)(CYREG_CLK_SELECT10), 0x00000031u);
 408              		.loc 1 262 0
 409 0108 1D4B     		ldr	r3, .L16+48
 410 010a 3122     		mov	r2, #49
 411 010c 1A60     		str	r2, [r3]
 263:.\Generated_Source\PSoC4/cyfitter_cfg.c **** 	CY_SET_XTND_REG32((void CYFAR *)(CYREG_CLK_SELECT11), 0x00000011u);
 412              		.loc 1 263 0
 413 010e 1D4B     		ldr	r3, .L16+52
 414 0110 1122     		mov	r2, #17
 415 0112 1A60     		str	r2, [r3]
ARM GAS  C:\Users\Samuel\AppData\Local\Temp\cckvrh5D.s 			page 13


 264:.\Generated_Source\PSoC4/cyfitter_cfg.c **** 	CY_SET_XTND_REG32((void CYFAR *)(CYREG_CLK_SELECT13), 0x00000010u);
 416              		.loc 1 264 0
 417 0114 1C4B     		ldr	r3, .L16+56
 418 0116 1022     		mov	r2, #16
 419 0118 1A60     		str	r2, [r3]
 265:.\Generated_Source\PSoC4/cyfitter_cfg.c **** 	CY_SET_XTND_REG32((void CYFAR *)(CYREG_CLK_SELECT15), 0x00000031u);
 420              		.loc 1 265 0
 421 011a 1C4B     		ldr	r3, .L16+60
 422 011c 3122     		mov	r2, #49
 423 011e 1A60     		str	r2, [r3]
 266:.\Generated_Source\PSoC4/cyfitter_cfg.c **** 
 267:.\Generated_Source\PSoC4/cyfitter_cfg.c **** 	/* CYDEV_CLK_IMO_CONFIG Starting address: CYDEV_CLK_IMO_CONFIG */
 268:.\Generated_Source\PSoC4/cyfitter_cfg.c **** 	CY_SET_XTND_REG32((void CYFAR *)(CYREG_CLK_IMO_CONFIG), 0x82000000u);
 424              		.loc 1 268 0
 425 0120 1B4B     		ldr	r3, .L16+64
 426 0122 8222     		mov	r2, #130
 427 0124 1206     		lsl	r2, r2, #24
 428 0126 1A60     		str	r2, [r3]
 269:.\Generated_Source\PSoC4/cyfitter_cfg.c **** 
 270:.\Generated_Source\PSoC4/cyfitter_cfg.c **** 	/* CYDEV_CLK_DIVIDER_A00 Starting address: CYDEV_CLK_DIVIDER_A00 */
 271:.\Generated_Source\PSoC4/cyfitter_cfg.c **** 	CY_SET_XTND_REG32((void CYFAR *)(CYREG_CLK_DIVIDER_A00), 0x8000000Bu);
 429              		.loc 1 271 0
 430 0128 1A4B     		ldr	r3, .L16+68
 431 012a 1B4A     		ldr	r2, .L16+72
 432 012c 1A60     		str	r2, [r3]
 272:.\Generated_Source\PSoC4/cyfitter_cfg.c **** 
 273:.\Generated_Source\PSoC4/cyfitter_cfg.c **** 	/* CYDEV_CLK_DIVIDER_B00 Starting address: CYDEV_CLK_DIVIDER_B00 */
 274:.\Generated_Source\PSoC4/cyfitter_cfg.c **** 	CY_SET_XTND_REG32((void CYFAR *)(CYREG_CLK_DIVIDER_B00), 0x80000010u);
 433              		.loc 1 274 0
 434 012e 1B4B     		ldr	r3, .L16+76
 435 0130 1B4A     		ldr	r2, .L16+80
 436 0132 1A60     		str	r2, [r3]
 275:.\Generated_Source\PSoC4/cyfitter_cfg.c **** 
 276:.\Generated_Source\PSoC4/cyfitter_cfg.c **** 	/* CYDEV_CLK_DIVIDER_C00 Starting address: CYDEV_CLK_DIVIDER_C00 */
 277:.\Generated_Source\PSoC4/cyfitter_cfg.c **** 	CY_SET_XTND_REG32((void CYFAR *)(CYREG_CLK_DIVIDER_C00), 0x80000010u);
 437              		.loc 1 277 0
 438 0134 1B4B     		ldr	r3, .L16+84
 439 0136 1A4A     		ldr	r2, .L16+80
 440 0138 1A60     		str	r2, [r3]
 278:.\Generated_Source\PSoC4/cyfitter_cfg.c **** 
 279:.\Generated_Source\PSoC4/cyfitter_cfg.c **** 	/* CYDEV_CLK_DIVIDER_A01 Starting address: CYDEV_CLK_DIVIDER_A01 */
 280:.\Generated_Source\PSoC4/cyfitter_cfg.c **** 	CY_SET_XTND_REG32((void CYFAR *)(CYREG_CLK_DIVIDER_A01), 0x80000017u);
 441              		.loc 1 280 0
 442 013a 1B4B     		ldr	r3, .L16+88
 443 013c 1B4A     		ldr	r2, .L16+92
 444 013e 1A60     		str	r2, [r3]
 281:.\Generated_Source\PSoC4/cyfitter_cfg.c **** 
 282:.\Generated_Source\PSoC4/cyfitter_cfg.c **** 	/* CYDEV_CLK_DIVIDER_B01 Starting address: CYDEV_CLK_DIVIDER_B01 */
 283:.\Generated_Source\PSoC4/cyfitter_cfg.c **** 	CY_SET_XTND_REG32((void CYFAR *)(CYREG_CLK_DIVIDER_B01), 0x80000017u);
 445              		.loc 1 283 0
 446 0140 1B4B     		ldr	r3, .L16+96
 447 0142 1A4A     		ldr	r2, .L16+92
 448 0144 1A60     		str	r2, [r3]
 284:.\Generated_Source\PSoC4/cyfitter_cfg.c **** 
 285:.\Generated_Source\PSoC4/cyfitter_cfg.c **** 	/* CYDEV_CLK_DIVIDER_C01 Starting address: CYDEV_CLK_DIVIDER_C01 */
 286:.\Generated_Source\PSoC4/cyfitter_cfg.c **** 	CY_SET_XTND_REG32((void CYFAR *)(CYREG_CLK_DIVIDER_C01), 0x80000017u);
 449              		.loc 1 286 0
ARM GAS  C:\Users\Samuel\AppData\Local\Temp\cckvrh5D.s 			page 14


 450 0146 1B4B     		ldr	r3, .L16+100
 451 0148 184A     		ldr	r2, .L16+92
 452 014a 1A60     		str	r2, [r3]
 287:.\Generated_Source\PSoC4/cyfitter_cfg.c **** 
 288:.\Generated_Source\PSoC4/cyfitter_cfg.c **** }
 453              		.loc 1 288 0
 454 014c BD46     		mov	sp, r7
 455              		@ sp needed
 456 014e 80BD     		pop	{r7, pc}
 457              	.L17:
 458              		.align	2
 459              	.L16:
 460 0150 00010B40 		.word	1074462976
 461 0154 2CFF0B40 		.word	1074528044
 462 0158 28FF0B40 		.word	1074528040
 463 015c E5F1FF0F 		.word	268431845
 464 0160 FFFFFBFF 		.word	-262145
 465 0164 04010B40 		.word	1074462980
 466 0168 06000080 		.word	-2147483642
 467 016c 08020240 		.word	1073873416
 468 0170 0C020240 		.word	1073873420
 469 0174 1C020240 		.word	1073873436
 470 0178 20020240 		.word	1073873440
 471 017c 24020240 		.word	1073873444
 472 0180 28020240 		.word	1073873448
 473 0184 2C020240 		.word	1073873452
 474 0188 34020240 		.word	1073873460
 475 018c 3C020240 		.word	1073873468
 476 0190 08010B40 		.word	1074462984
 477 0194 00000240 		.word	1073872896
 478 0198 0B000080 		.word	-2147483637
 479 019c 40000240 		.word	1073872960
 480 01a0 10000080 		.word	-2147483632
 481 01a4 80000240 		.word	1073873024
 482 01a8 04000240 		.word	1073872900
 483 01ac 17000080 		.word	-2147483625
 484 01b0 44000240 		.word	1073872964
 485 01b4 84000240 		.word	1073873028
 486              		.cfi_endproc
 487              	.LFE5:
 488              		.size	ClockSetup, .-ClockSetup
 489              		.section	.text.AnalogSetDefault,"ax",%progbits
 490              		.align	2
 491              		.code	16
 492              		.thumb_func
 493              		.type	AnalogSetDefault, %function
 494              	AnalogSetDefault:
 495              	.LFB6:
 289:.\Generated_Source\PSoC4/cyfitter_cfg.c **** 
 290:.\Generated_Source\PSoC4/cyfitter_cfg.c **** 
 291:.\Generated_Source\PSoC4/cyfitter_cfg.c **** /* Analog API Functions */
 292:.\Generated_Source\PSoC4/cyfitter_cfg.c **** 
 293:.\Generated_Source\PSoC4/cyfitter_cfg.c **** 
 294:.\Generated_Source\PSoC4/cyfitter_cfg.c **** /*******************************************************************************
 295:.\Generated_Source\PSoC4/cyfitter_cfg.c **** * Function Name: AnalogSetDefault
 296:.\Generated_Source\PSoC4/cyfitter_cfg.c **** ********************************************************************************
 297:.\Generated_Source\PSoC4/cyfitter_cfg.c **** *
ARM GAS  C:\Users\Samuel\AppData\Local\Temp\cckvrh5D.s 			page 15


 298:.\Generated_Source\PSoC4/cyfitter_cfg.c **** * Summary:
 299:.\Generated_Source\PSoC4/cyfitter_cfg.c **** *  Sets up the analog portions of the chip to default values based on chip
 300:.\Generated_Source\PSoC4/cyfitter_cfg.c **** *  configuration options from the project.
 301:.\Generated_Source\PSoC4/cyfitter_cfg.c **** *
 302:.\Generated_Source\PSoC4/cyfitter_cfg.c **** * Parameters:
 303:.\Generated_Source\PSoC4/cyfitter_cfg.c **** *  void
 304:.\Generated_Source\PSoC4/cyfitter_cfg.c **** *
 305:.\Generated_Source\PSoC4/cyfitter_cfg.c **** * Return:
 306:.\Generated_Source\PSoC4/cyfitter_cfg.c **** *  void
 307:.\Generated_Source\PSoC4/cyfitter_cfg.c **** *
 308:.\Generated_Source\PSoC4/cyfitter_cfg.c **** *******************************************************************************/
 309:.\Generated_Source\PSoC4/cyfitter_cfg.c **** static void AnalogSetDefault(void);
 310:.\Generated_Source\PSoC4/cyfitter_cfg.c **** static void AnalogSetDefault(void)
 311:.\Generated_Source\PSoC4/cyfitter_cfg.c **** {
 496              		.loc 1 311 0
 497              		.cfi_startproc
 498 0000 80B5     		push	{r7, lr}
 499              		.cfi_def_cfa_offset 8
 500              		.cfi_offset 7, -8
 501              		.cfi_offset 14, -4
 502 0002 00AF     		add	r7, sp, #0
 503              		.cfi_def_cfa_register 7
 312:.\Generated_Source\PSoC4/cyfitter_cfg.c **** 	CY_SET_XTND_REG32((void CYFAR *)CYREG_SAR_MUX_SWITCH0, 0x0000000Fu);
 504              		.loc 1 312 0
 505 0004 054B     		ldr	r3, .L19
 506 0006 0F22     		mov	r2, #15
 507 0008 1A60     		str	r2, [r3]
 313:.\Generated_Source\PSoC4/cyfitter_cfg.c **** 	CY_SET_XTND_REG32((void CYFAR *)CYREG_SAR_MUX_SWITCH_HW_CTRL, 0x0000000Fu);
 508              		.loc 1 313 0
 509 000a 054B     		ldr	r3, .L19+4
 510 000c 0F22     		mov	r2, #15
 511 000e 1A60     		str	r2, [r3]
 314:.\Generated_Source\PSoC4/cyfitter_cfg.c **** 	SetAnalogRoutingPumps(1);
 512              		.loc 1 314 0
 513 0010 0120     		mov	r0, #1
 514 0012 FFF7FEFF 		bl	SetAnalogRoutingPumps
 315:.\Generated_Source\PSoC4/cyfitter_cfg.c **** }
 515              		.loc 1 315 0
 516 0016 BD46     		mov	sp, r7
 517              		@ sp needed
 518 0018 80BD     		pop	{r7, pc}
 519              	.L20:
 520 001a C046     		.align	2
 521              	.L19:
 522 001c 00031A40 		.word	1075446528
 523 0020 40031A40 		.word	1075446592
 524              		.cfi_endproc
 525              	.LFE6:
 526              		.size	AnalogSetDefault, .-AnalogSetDefault
 527              		.section	.text.SetAnalogRoutingPumps,"ax",%progbits
 528              		.align	2
 529              		.global	SetAnalogRoutingPumps
 530              		.code	16
 531              		.thumb_func
 532              		.type	SetAnalogRoutingPumps, %function
 533              	SetAnalogRoutingPumps:
 534              	.LFB7:
ARM GAS  C:\Users\Samuel\AppData\Local\Temp\cckvrh5D.s 			page 16


 316:.\Generated_Source\PSoC4/cyfitter_cfg.c **** 
 317:.\Generated_Source\PSoC4/cyfitter_cfg.c **** 
 318:.\Generated_Source\PSoC4/cyfitter_cfg.c **** /*******************************************************************************
 319:.\Generated_Source\PSoC4/cyfitter_cfg.c **** * Function Name: SetAnalogRoutingPumps
 320:.\Generated_Source\PSoC4/cyfitter_cfg.c **** ********************************************************************************
 321:.\Generated_Source\PSoC4/cyfitter_cfg.c **** *
 322:.\Generated_Source\PSoC4/cyfitter_cfg.c **** * Summary:
 323:.\Generated_Source\PSoC4/cyfitter_cfg.c **** * Enables or disables the analog pumps feeding analog routing switches.
 324:.\Generated_Source\PSoC4/cyfitter_cfg.c **** * Intended to be called at startup, based on the Vdda system configuration;
 325:.\Generated_Source\PSoC4/cyfitter_cfg.c **** * may be called during operation when the user informs us that the Vdda voltage crossed the pump th
 326:.\Generated_Source\PSoC4/cyfitter_cfg.c **** *
 327:.\Generated_Source\PSoC4/cyfitter_cfg.c **** * Parameters:
 328:.\Generated_Source\PSoC4/cyfitter_cfg.c **** *  enabled - 1 to enable the pumps, 0 to disable the pumps
 329:.\Generated_Source\PSoC4/cyfitter_cfg.c **** *
 330:.\Generated_Source\PSoC4/cyfitter_cfg.c **** * Return:
 331:.\Generated_Source\PSoC4/cyfitter_cfg.c **** *  void
 332:.\Generated_Source\PSoC4/cyfitter_cfg.c **** *
 333:.\Generated_Source\PSoC4/cyfitter_cfg.c **** *******************************************************************************/
 334:.\Generated_Source\PSoC4/cyfitter_cfg.c **** void SetAnalogRoutingPumps(uint8 enabled)
 335:.\Generated_Source\PSoC4/cyfitter_cfg.c **** {
 535              		.loc 1 335 0
 536              		.cfi_startproc
 537 0000 80B5     		push	{r7, lr}
 538              		.cfi_def_cfa_offset 8
 539              		.cfi_offset 7, -8
 540              		.cfi_offset 14, -4
 541 0002 84B0     		sub	sp, sp, #16
 542              		.cfi_def_cfa_offset 24
 543 0004 00AF     		add	r7, sp, #0
 544              		.cfi_def_cfa_register 7
 545 0006 021C     		mov	r2, r0
 546 0008 FB1D     		add	r3, r7, #7
 547 000a 1A70     		strb	r2, [r3]
 336:.\Generated_Source\PSoC4/cyfitter_cfg.c **** 	uint32 regValue = CY_GET_XTND_REG32((void *)(CYREG_SAR_PUMP_CTRL));
 548              		.loc 1 336 0
 549 000c 0B4B     		ldr	r3, .L24
 550 000e 1B68     		ldr	r3, [r3]
 551 0010 FB60     		str	r3, [r7, #12]
 337:.\Generated_Source\PSoC4/cyfitter_cfg.c **** 	if (enabled != 0u)
 552              		.loc 1 337 0
 553 0012 FB1D     		add	r3, r7, #7
 554 0014 1B78     		ldrb	r3, [r3]
 555 0016 002B     		cmp	r3, #0
 556 0018 05D0     		beq	.L22
 338:.\Generated_Source\PSoC4/cyfitter_cfg.c **** 	{
 339:.\Generated_Source\PSoC4/cyfitter_cfg.c **** 		regValue |= 0x80000000u;
 557              		.loc 1 339 0
 558 001a FB68     		ldr	r3, [r7, #12]
 559 001c 8022     		mov	r2, #128
 560 001e 1206     		lsl	r2, r2, #24
 561 0020 1343     		orr	r3, r2
 562 0022 FB60     		str	r3, [r7, #12]
 563 0024 03E0     		b	.L23
 564              	.L22:
 340:.\Generated_Source\PSoC4/cyfitter_cfg.c **** 	}
 341:.\Generated_Source\PSoC4/cyfitter_cfg.c **** 	else
 342:.\Generated_Source\PSoC4/cyfitter_cfg.c **** 	{
ARM GAS  C:\Users\Samuel\AppData\Local\Temp\cckvrh5D.s 			page 17


 343:.\Generated_Source\PSoC4/cyfitter_cfg.c **** 		regValue &= ~0x80000000u;
 565              		.loc 1 343 0
 566 0026 FB68     		ldr	r3, [r7, #12]
 567 0028 5B00     		lsl	r3, r3, #1
 568 002a 5B08     		lsr	r3, r3, #1
 569 002c FB60     		str	r3, [r7, #12]
 570              	.L23:
 344:.\Generated_Source\PSoC4/cyfitter_cfg.c **** 	}
 345:.\Generated_Source\PSoC4/cyfitter_cfg.c **** 	CY_SET_XTND_REG32((void *)(CYREG_SAR_PUMP_CTRL), regValue);
 571              		.loc 1 345 0
 572 002e 034B     		ldr	r3, .L24
 573 0030 FA68     		ldr	r2, [r7, #12]
 574 0032 1A60     		str	r2, [r3]
 346:.\Generated_Source\PSoC4/cyfitter_cfg.c **** }
 575              		.loc 1 346 0
 576 0034 BD46     		mov	sp, r7
 577 0036 04B0     		add	sp, sp, #16
 578              		@ sp needed
 579 0038 80BD     		pop	{r7, pc}
 580              	.L25:
 581 003a C046     		.align	2
 582              	.L24:
 583 003c 80031A40 		.word	1075446656
 584              		.cfi_endproc
 585              	.LFE7:
 586              		.size	SetAnalogRoutingPumps, .-SetAnalogRoutingPumps
 587              		.section	.psocinit
 588              		.align	2
 589              		.global	cyfitter_cfg
 590              		.code	16
 591              		.thumb_func
 592              		.type	cyfitter_cfg, %function
 593              	cyfitter_cfg:
 594              	.LFB8:
 347:.\Generated_Source\PSoC4/cyfitter_cfg.c **** 
 348:.\Generated_Source\PSoC4/cyfitter_cfg.c **** #define CY_AMUX_UNUSED CYREG_CM0_ROM_DWT
 349:.\Generated_Source\PSoC4/cyfitter_cfg.c **** 
 350:.\Generated_Source\PSoC4/cyfitter_cfg.c **** 
 351:.\Generated_Source\PSoC4/cyfitter_cfg.c **** /*******************************************************************************
 352:.\Generated_Source\PSoC4/cyfitter_cfg.c **** * Function Name: cyfitter_cfg
 353:.\Generated_Source\PSoC4/cyfitter_cfg.c **** ********************************************************************************
 354:.\Generated_Source\PSoC4/cyfitter_cfg.c **** * Summary:
 355:.\Generated_Source\PSoC4/cyfitter_cfg.c **** *  This function is called by the start-up code for the selected device. It
 356:.\Generated_Source\PSoC4/cyfitter_cfg.c **** *  performs all of the necessary device configuration based on the design
 357:.\Generated_Source\PSoC4/cyfitter_cfg.c **** *  settings.  This includes settings from the Design Wide Resources (DWR) such
 358:.\Generated_Source\PSoC4/cyfitter_cfg.c **** *  as Clocks and Pins as well as any component configuration that is necessary.
 359:.\Generated_Source\PSoC4/cyfitter_cfg.c **** *
 360:.\Generated_Source\PSoC4/cyfitter_cfg.c **** * Parameters:  
 361:.\Generated_Source\PSoC4/cyfitter_cfg.c **** *   void
 362:.\Generated_Source\PSoC4/cyfitter_cfg.c **** *
 363:.\Generated_Source\PSoC4/cyfitter_cfg.c **** * Return:
 364:.\Generated_Source\PSoC4/cyfitter_cfg.c **** *   void
 365:.\Generated_Source\PSoC4/cyfitter_cfg.c **** *
 366:.\Generated_Source\PSoC4/cyfitter_cfg.c **** *******************************************************************************/
 367:.\Generated_Source\PSoC4/cyfitter_cfg.c **** CY_CFG_SECTION
 368:.\Generated_Source\PSoC4/cyfitter_cfg.c **** void cyfitter_cfg(void)
 369:.\Generated_Source\PSoC4/cyfitter_cfg.c **** {
ARM GAS  C:\Users\Samuel\AppData\Local\Temp\cckvrh5D.s 			page 18


 595              		.loc 1 369 0
 596              		.cfi_startproc
 597 01b8 80B5     		push	{r7, lr}
 598              		.cfi_def_cfa_offset 8
 599              		.cfi_offset 7, -8
 600              		.cfi_offset 14, -4
 601 01ba 86B0     		sub	sp, sp, #24
 602              		.cfi_def_cfa_offset 32
 603 01bc 00AF     		add	r7, sp, #0
 604              		.cfi_def_cfa_register 7
 370:.\Generated_Source\PSoC4/cyfitter_cfg.c **** 	/* Disable interrupts by default. Let user enable if/when they want. */
 371:.\Generated_Source\PSoC4/cyfitter_cfg.c **** 	CyGlobalIntDisable;
 605              		.loc 1 371 0
 606              	@ 371 ".\Generated_Source\PSoC4\cyfitter_cfg.c" 1
 607 01be 72B6     		CPSID   i
 608              	@ 0 "" 2
 609              		.code	16
 610              	.LBB3:
 372:.\Generated_Source\PSoC4/cyfitter_cfg.c **** 
 373:.\Generated_Source\PSoC4/cyfitter_cfg.c **** 	{
 374:.\Generated_Source\PSoC4/cyfitter_cfg.c **** 		static const uint32 CYCODE cy_cfg_addr_table[] = {
 375:.\Generated_Source\PSoC4/cyfitter_cfg.c **** 			0x400F0002u, /* Base address: 0x400F0000 Count: 2 */
 376:.\Generated_Source\PSoC4/cyfitter_cfg.c **** 			0x400F3028u, /* Base address: 0x400F3000 Count: 40 */
 377:.\Generated_Source\PSoC4/cyfitter_cfg.c **** 			0x400F3134u, /* Base address: 0x400F3100 Count: 52 */
 378:.\Generated_Source\PSoC4/cyfitter_cfg.c **** 			0x400F3216u, /* Base address: 0x400F3200 Count: 22 */
 379:.\Generated_Source\PSoC4/cyfitter_cfg.c **** 			0x400F3347u, /* Base address: 0x400F3300 Count: 71 */
 380:.\Generated_Source\PSoC4/cyfitter_cfg.c **** 			0x400F4007u, /* Base address: 0x400F4000 Count: 7 */
 381:.\Generated_Source\PSoC4/cyfitter_cfg.c **** 			0x400F410Au, /* Base address: 0x400F4100 Count: 10 */
 382:.\Generated_Source\PSoC4/cyfitter_cfg.c **** 			0x400F4202u, /* Base address: 0x400F4200 Count: 2 */
 383:.\Generated_Source\PSoC4/cyfitter_cfg.c **** 			0x400F4306u, /* Base address: 0x400F4300 Count: 6 */
 384:.\Generated_Source\PSoC4/cyfitter_cfg.c **** 			0x400F6002u, /* Base address: 0x400F6000 Count: 2 */
 385:.\Generated_Source\PSoC4/cyfitter_cfg.c **** 		};
 386:.\Generated_Source\PSoC4/cyfitter_cfg.c **** 
 387:.\Generated_Source\PSoC4/cyfitter_cfg.c **** 		static const cy_cfg_addrvalue_t CYCODE cy_cfg_data_table[] = {
 388:.\Generated_Source\PSoC4/cyfitter_cfg.c **** 			{0x80u, 0x0Fu},
 389:.\Generated_Source\PSoC4/cyfitter_cfg.c **** 			{0x82u, 0x0Du},
 390:.\Generated_Source\PSoC4/cyfitter_cfg.c **** 			{0x8Cu, 0x06u},
 391:.\Generated_Source\PSoC4/cyfitter_cfg.c **** 			{0x8Eu, 0x08u},
 392:.\Generated_Source\PSoC4/cyfitter_cfg.c **** 			{0x94u, 0x0Cu},
 393:.\Generated_Source\PSoC4/cyfitter_cfg.c **** 			{0x96u, 0x03u},
 394:.\Generated_Source\PSoC4/cyfitter_cfg.c **** 			{0x9Au, 0x01u},
 395:.\Generated_Source\PSoC4/cyfitter_cfg.c **** 			{0xACu, 0x04u},
 396:.\Generated_Source\PSoC4/cyfitter_cfg.c **** 			{0xAEu, 0x0Bu},
 397:.\Generated_Source\PSoC4/cyfitter_cfg.c **** 			{0xB0u, 0x08u},
 398:.\Generated_Source\PSoC4/cyfitter_cfg.c **** 			{0xB4u, 0x03u},
 399:.\Generated_Source\PSoC4/cyfitter_cfg.c **** 			{0xB6u, 0x04u},
 400:.\Generated_Source\PSoC4/cyfitter_cfg.c **** 			{0xBEu, 0x41u},
 401:.\Generated_Source\PSoC4/cyfitter_cfg.c **** 			{0xC0u, 0x40u},
 402:.\Generated_Source\PSoC4/cyfitter_cfg.c **** 			{0xC1u, 0x03u},
 403:.\Generated_Source\PSoC4/cyfitter_cfg.c **** 			{0xC5u, 0xD0u},
 404:.\Generated_Source\PSoC4/cyfitter_cfg.c **** 			{0xC6u, 0x20u},
 405:.\Generated_Source\PSoC4/cyfitter_cfg.c **** 			{0xC7u, 0x10u},
 406:.\Generated_Source\PSoC4/cyfitter_cfg.c **** 			{0xC8u, 0x3Au},
 407:.\Generated_Source\PSoC4/cyfitter_cfg.c **** 			{0xC9u, 0xFFu},
 408:.\Generated_Source\PSoC4/cyfitter_cfg.c **** 			{0xCAu, 0xFFu},
 409:.\Generated_Source\PSoC4/cyfitter_cfg.c **** 			{0xCBu, 0xFFu},
 410:.\Generated_Source\PSoC4/cyfitter_cfg.c **** 			{0xCDu, 0xAFu},
ARM GAS  C:\Users\Samuel\AppData\Local\Temp\cckvrh5D.s 			page 19


 411:.\Generated_Source\PSoC4/cyfitter_cfg.c **** 			{0xCEu, 0x0Fu},
 412:.\Generated_Source\PSoC4/cyfitter_cfg.c **** 			{0xCFu, 0x04u},
 413:.\Generated_Source\PSoC4/cyfitter_cfg.c **** 			{0xD0u, 0x18u},
 414:.\Generated_Source\PSoC4/cyfitter_cfg.c **** 			{0xD4u, 0x09u},
 415:.\Generated_Source\PSoC4/cyfitter_cfg.c **** 			{0xD8u, 0x04u},
 416:.\Generated_Source\PSoC4/cyfitter_cfg.c **** 			{0xDAu, 0x04u},
 417:.\Generated_Source\PSoC4/cyfitter_cfg.c **** 			{0xDBu, 0x04u},
 418:.\Generated_Source\PSoC4/cyfitter_cfg.c **** 			{0xDCu, 0x01u},
 419:.\Generated_Source\PSoC4/cyfitter_cfg.c **** 			{0xDDu, 0x13u},
 420:.\Generated_Source\PSoC4/cyfitter_cfg.c **** 			{0xDFu, 0x01u},
 421:.\Generated_Source\PSoC4/cyfitter_cfg.c **** 			{0xE0u, 0x40u},
 422:.\Generated_Source\PSoC4/cyfitter_cfg.c **** 			{0xE2u, 0xC0u},
 423:.\Generated_Source\PSoC4/cyfitter_cfg.c **** 			{0xE4u, 0x40u},
 424:.\Generated_Source\PSoC4/cyfitter_cfg.c **** 			{0xE5u, 0x40u},
 425:.\Generated_Source\PSoC4/cyfitter_cfg.c **** 			{0xE6u, 0xC0u},
 426:.\Generated_Source\PSoC4/cyfitter_cfg.c **** 			{0xE8u, 0xC0u},
 427:.\Generated_Source\PSoC4/cyfitter_cfg.c **** 			{0xEAu, 0xC0u},
 428:.\Generated_Source\PSoC4/cyfitter_cfg.c **** 			{0xECu, 0xC0u},
 429:.\Generated_Source\PSoC4/cyfitter_cfg.c **** 			{0xEEu, 0xC0u},
 430:.\Generated_Source\PSoC4/cyfitter_cfg.c **** 			{0x00u, 0x60u},
 431:.\Generated_Source\PSoC4/cyfitter_cfg.c **** 			{0x01u, 0x0Au},
 432:.\Generated_Source\PSoC4/cyfitter_cfg.c **** 			{0x04u, 0x40u},
 433:.\Generated_Source\PSoC4/cyfitter_cfg.c **** 			{0x09u, 0x88u},
 434:.\Generated_Source\PSoC4/cyfitter_cfg.c **** 			{0x0Au, 0x80u},
 435:.\Generated_Source\PSoC4/cyfitter_cfg.c **** 			{0x0Du, 0x04u},
 436:.\Generated_Source\PSoC4/cyfitter_cfg.c **** 			{0x0Eu, 0x08u},
 437:.\Generated_Source\PSoC4/cyfitter_cfg.c **** 			{0x10u, 0x28u},
 438:.\Generated_Source\PSoC4/cyfitter_cfg.c **** 			{0x12u, 0x40u},
 439:.\Generated_Source\PSoC4/cyfitter_cfg.c **** 			{0x13u, 0x82u},
 440:.\Generated_Source\PSoC4/cyfitter_cfg.c **** 			{0x15u, 0x80u},
 441:.\Generated_Source\PSoC4/cyfitter_cfg.c **** 			{0x18u, 0x05u},
 442:.\Generated_Source\PSoC4/cyfitter_cfg.c **** 			{0x19u, 0x08u},
 443:.\Generated_Source\PSoC4/cyfitter_cfg.c **** 			{0x1Du, 0x40u},
 444:.\Generated_Source\PSoC4/cyfitter_cfg.c **** 			{0x1Eu, 0x88u},
 445:.\Generated_Source\PSoC4/cyfitter_cfg.c **** 			{0x20u, 0x40u},
 446:.\Generated_Source\PSoC4/cyfitter_cfg.c **** 			{0x21u, 0xCCu},
 447:.\Generated_Source\PSoC4/cyfitter_cfg.c **** 			{0x22u, 0x80u},
 448:.\Generated_Source\PSoC4/cyfitter_cfg.c **** 			{0x28u, 0x20u},
 449:.\Generated_Source\PSoC4/cyfitter_cfg.c **** 			{0x29u, 0x02u},
 450:.\Generated_Source\PSoC4/cyfitter_cfg.c **** 			{0x2Au, 0x44u},
 451:.\Generated_Source\PSoC4/cyfitter_cfg.c **** 			{0x30u, 0x02u},
 452:.\Generated_Source\PSoC4/cyfitter_cfg.c **** 			{0x31u, 0x08u},
 453:.\Generated_Source\PSoC4/cyfitter_cfg.c **** 			{0x32u, 0x80u},
 454:.\Generated_Source\PSoC4/cyfitter_cfg.c **** 			{0x38u, 0x40u},
 455:.\Generated_Source\PSoC4/cyfitter_cfg.c **** 			{0x39u, 0x15u},
 456:.\Generated_Source\PSoC4/cyfitter_cfg.c **** 			{0x42u, 0x20u},
 457:.\Generated_Source\PSoC4/cyfitter_cfg.c **** 			{0x43u, 0x03u},
 458:.\Generated_Source\PSoC4/cyfitter_cfg.c **** 			{0x46u, 0x20u},
 459:.\Generated_Source\PSoC4/cyfitter_cfg.c **** 			{0x47u, 0x01u},
 460:.\Generated_Source\PSoC4/cyfitter_cfg.c **** 			{0x4Fu, 0x01u},
 461:.\Generated_Source\PSoC4/cyfitter_cfg.c **** 			{0x56u, 0x28u},
 462:.\Generated_Source\PSoC4/cyfitter_cfg.c **** 			{0x57u, 0x01u},
 463:.\Generated_Source\PSoC4/cyfitter_cfg.c **** 			{0x5Cu, 0x21u},
 464:.\Generated_Source\PSoC4/cyfitter_cfg.c **** 			{0x5Eu, 0x84u},
 465:.\Generated_Source\PSoC4/cyfitter_cfg.c **** 			{0x62u, 0x08u},
 466:.\Generated_Source\PSoC4/cyfitter_cfg.c **** 			{0x65u, 0x40u},
 467:.\Generated_Source\PSoC4/cyfitter_cfg.c **** 			{0x68u, 0x2Au},
ARM GAS  C:\Users\Samuel\AppData\Local\Temp\cckvrh5D.s 			page 20


 468:.\Generated_Source\PSoC4/cyfitter_cfg.c **** 			{0x69u, 0x15u},
 469:.\Generated_Source\PSoC4/cyfitter_cfg.c **** 			{0x6Au, 0x80u},
 470:.\Generated_Source\PSoC4/cyfitter_cfg.c **** 			{0x6Bu, 0x80u},
 471:.\Generated_Source\PSoC4/cyfitter_cfg.c **** 			{0x73u, 0x02u},
 472:.\Generated_Source\PSoC4/cyfitter_cfg.c **** 			{0x82u, 0x04u},
 473:.\Generated_Source\PSoC4/cyfitter_cfg.c **** 			{0xC0u, 0x8Fu},
 474:.\Generated_Source\PSoC4/cyfitter_cfg.c **** 			{0xC2u, 0x6Du},
 475:.\Generated_Source\PSoC4/cyfitter_cfg.c **** 			{0xC4u, 0x8Fu},
 476:.\Generated_Source\PSoC4/cyfitter_cfg.c **** 			{0xCAu, 0x0Bu},
 477:.\Generated_Source\PSoC4/cyfitter_cfg.c **** 			{0xCCu, 0x0Bu},
 478:.\Generated_Source\PSoC4/cyfitter_cfg.c **** 			{0xCEu, 0x0Fu},
 479:.\Generated_Source\PSoC4/cyfitter_cfg.c **** 			{0xD0u, 0xC3u},
 480:.\Generated_Source\PSoC4/cyfitter_cfg.c **** 			{0xD6u, 0xF0u},
 481:.\Generated_Source\PSoC4/cyfitter_cfg.c **** 			{0xD8u, 0x12u},
 482:.\Generated_Source\PSoC4/cyfitter_cfg.c **** 			{0x01u, 0x01u},
 483:.\Generated_Source\PSoC4/cyfitter_cfg.c **** 			{0x05u, 0x01u},
 484:.\Generated_Source\PSoC4/cyfitter_cfg.c **** 			{0x12u, 0x02u},
 485:.\Generated_Source\PSoC4/cyfitter_cfg.c **** 			{0x1Cu, 0x0Cu},
 486:.\Generated_Source\PSoC4/cyfitter_cfg.c **** 			{0x26u, 0x02u},
 487:.\Generated_Source\PSoC4/cyfitter_cfg.c **** 			{0x28u, 0x0Cu},
 488:.\Generated_Source\PSoC4/cyfitter_cfg.c **** 			{0x29u, 0x01u},
 489:.\Generated_Source\PSoC4/cyfitter_cfg.c **** 			{0x2Eu, 0x05u},
 490:.\Generated_Source\PSoC4/cyfitter_cfg.c **** 			{0x30u, 0x01u},
 491:.\Generated_Source\PSoC4/cyfitter_cfg.c **** 			{0x31u, 0x01u},
 492:.\Generated_Source\PSoC4/cyfitter_cfg.c **** 			{0x32u, 0x08u},
 493:.\Generated_Source\PSoC4/cyfitter_cfg.c **** 			{0x34u, 0x02u},
 494:.\Generated_Source\PSoC4/cyfitter_cfg.c **** 			{0x36u, 0x04u},
 495:.\Generated_Source\PSoC4/cyfitter_cfg.c **** 			{0x3Eu, 0x10u},
 496:.\Generated_Source\PSoC4/cyfitter_cfg.c **** 			{0x52u, 0x80u},
 497:.\Generated_Source\PSoC4/cyfitter_cfg.c **** 			{0x54u, 0x05u},
 498:.\Generated_Source\PSoC4/cyfitter_cfg.c **** 			{0x58u, 0x04u},
 499:.\Generated_Source\PSoC4/cyfitter_cfg.c **** 			{0x59u, 0x04u},
 500:.\Generated_Source\PSoC4/cyfitter_cfg.c **** 			{0x5Bu, 0x04u},
 501:.\Generated_Source\PSoC4/cyfitter_cfg.c **** 			{0x5Cu, 0x33u},
 502:.\Generated_Source\PSoC4/cyfitter_cfg.c **** 			{0x5Du, 0x30u},
 503:.\Generated_Source\PSoC4/cyfitter_cfg.c **** 			{0x5Fu, 0x01u},
 504:.\Generated_Source\PSoC4/cyfitter_cfg.c **** 			{0x00u, 0x40u},
 505:.\Generated_Source\PSoC4/cyfitter_cfg.c **** 			{0x01u, 0x12u},
 506:.\Generated_Source\PSoC4/cyfitter_cfg.c **** 			{0x03u, 0x20u},
 507:.\Generated_Source\PSoC4/cyfitter_cfg.c **** 			{0x09u, 0x08u},
 508:.\Generated_Source\PSoC4/cyfitter_cfg.c **** 			{0x0Au, 0x81u},
 509:.\Generated_Source\PSoC4/cyfitter_cfg.c **** 			{0x0Bu, 0x04u},
 510:.\Generated_Source\PSoC4/cyfitter_cfg.c **** 			{0x0Eu, 0x80u},
 511:.\Generated_Source\PSoC4/cyfitter_cfg.c **** 			{0x0Fu, 0x02u},
 512:.\Generated_Source\PSoC4/cyfitter_cfg.c **** 			{0x10u, 0x22u},
 513:.\Generated_Source\PSoC4/cyfitter_cfg.c **** 			{0x13u, 0x02u},
 514:.\Generated_Source\PSoC4/cyfitter_cfg.c **** 			{0x16u, 0x28u},
 515:.\Generated_Source\PSoC4/cyfitter_cfg.c **** 			{0x17u, 0x40u},
 516:.\Generated_Source\PSoC4/cyfitter_cfg.c **** 			{0x18u, 0x10u},
 517:.\Generated_Source\PSoC4/cyfitter_cfg.c **** 			{0x19u, 0x02u},
 518:.\Generated_Source\PSoC4/cyfitter_cfg.c **** 			{0x1Bu, 0x20u},
 519:.\Generated_Source\PSoC4/cyfitter_cfg.c **** 			{0x1Eu, 0x88u},
 520:.\Generated_Source\PSoC4/cyfitter_cfg.c **** 			{0x1Fu, 0x8Au},
 521:.\Generated_Source\PSoC4/cyfitter_cfg.c **** 			{0x22u, 0x18u},
 522:.\Generated_Source\PSoC4/cyfitter_cfg.c **** 			{0x27u, 0x80u},
 523:.\Generated_Source\PSoC4/cyfitter_cfg.c **** 			{0x2Fu, 0x08u},
 524:.\Generated_Source\PSoC4/cyfitter_cfg.c **** 			{0x32u, 0x98u},
ARM GAS  C:\Users\Samuel\AppData\Local\Temp\cckvrh5D.s 			page 21


 525:.\Generated_Source\PSoC4/cyfitter_cfg.c **** 			{0x38u, 0x40u},
 526:.\Generated_Source\PSoC4/cyfitter_cfg.c **** 			{0x39u, 0x08u},
 527:.\Generated_Source\PSoC4/cyfitter_cfg.c **** 			{0x3Eu, 0x08u},
 528:.\Generated_Source\PSoC4/cyfitter_cfg.c **** 			{0x3Fu, 0x02u},
 529:.\Generated_Source\PSoC4/cyfitter_cfg.c **** 			{0x40u, 0x44u},
 530:.\Generated_Source\PSoC4/cyfitter_cfg.c **** 			{0x41u, 0x44u},
 531:.\Generated_Source\PSoC4/cyfitter_cfg.c **** 			{0x42u, 0x01u},
 532:.\Generated_Source\PSoC4/cyfitter_cfg.c **** 			{0x48u, 0x56u},
 533:.\Generated_Source\PSoC4/cyfitter_cfg.c **** 			{0x49u, 0x40u},
 534:.\Generated_Source\PSoC4/cyfitter_cfg.c **** 			{0x50u, 0x02u},
 535:.\Generated_Source\PSoC4/cyfitter_cfg.c **** 			{0x52u, 0x14u},
 536:.\Generated_Source\PSoC4/cyfitter_cfg.c **** 			{0x5Eu, 0x08u},
 537:.\Generated_Source\PSoC4/cyfitter_cfg.c **** 			{0x5Fu, 0x81u},
 538:.\Generated_Source\PSoC4/cyfitter_cfg.c **** 			{0x60u, 0x10u},
 539:.\Generated_Source\PSoC4/cyfitter_cfg.c **** 			{0x61u, 0x40u},
 540:.\Generated_Source\PSoC4/cyfitter_cfg.c **** 			{0x62u, 0x10u},
 541:.\Generated_Source\PSoC4/cyfitter_cfg.c **** 			{0x77u, 0x40u},
 542:.\Generated_Source\PSoC4/cyfitter_cfg.c **** 			{0x87u, 0x80u},
 543:.\Generated_Source\PSoC4/cyfitter_cfg.c **** 			{0x90u, 0x44u},
 544:.\Generated_Source\PSoC4/cyfitter_cfg.c **** 			{0x91u, 0x98u},
 545:.\Generated_Source\PSoC4/cyfitter_cfg.c **** 			{0x92u, 0x80u},
 546:.\Generated_Source\PSoC4/cyfitter_cfg.c **** 			{0x93u, 0x05u},
 547:.\Generated_Source\PSoC4/cyfitter_cfg.c **** 			{0x9Au, 0x28u},
 548:.\Generated_Source\PSoC4/cyfitter_cfg.c **** 			{0x9Bu, 0x02u},
 549:.\Generated_Source\PSoC4/cyfitter_cfg.c **** 			{0x9Du, 0x02u},
 550:.\Generated_Source\PSoC4/cyfitter_cfg.c **** 			{0x9Eu, 0x04u},
 551:.\Generated_Source\PSoC4/cyfitter_cfg.c **** 			{0xA0u, 0x24u},
 552:.\Generated_Source\PSoC4/cyfitter_cfg.c **** 			{0xA1u, 0x08u},
 553:.\Generated_Source\PSoC4/cyfitter_cfg.c **** 			{0xA2u, 0x80u},
 554:.\Generated_Source\PSoC4/cyfitter_cfg.c **** 			{0xA3u, 0x01u},
 555:.\Generated_Source\PSoC4/cyfitter_cfg.c **** 			{0xA4u, 0x50u},
 556:.\Generated_Source\PSoC4/cyfitter_cfg.c **** 			{0xA6u, 0x08u},
 557:.\Generated_Source\PSoC4/cyfitter_cfg.c **** 			{0xA7u, 0x02u},
 558:.\Generated_Source\PSoC4/cyfitter_cfg.c **** 			{0xACu, 0x44u},
 559:.\Generated_Source\PSoC4/cyfitter_cfg.c **** 			{0xADu, 0x08u},
 560:.\Generated_Source\PSoC4/cyfitter_cfg.c **** 			{0xAEu, 0x04u},
 561:.\Generated_Source\PSoC4/cyfitter_cfg.c **** 			{0xB3u, 0x84u},
 562:.\Generated_Source\PSoC4/cyfitter_cfg.c **** 			{0xC0u, 0x0Fu},
 563:.\Generated_Source\PSoC4/cyfitter_cfg.c **** 			{0xC2u, 0x9Fu},
 564:.\Generated_Source\PSoC4/cyfitter_cfg.c **** 			{0xC4u, 0xEDu},
 565:.\Generated_Source\PSoC4/cyfitter_cfg.c **** 			{0xCAu, 0x20u},
 566:.\Generated_Source\PSoC4/cyfitter_cfg.c **** 			{0xCCu, 0x0Eu},
 567:.\Generated_Source\PSoC4/cyfitter_cfg.c **** 			{0xCEu, 0xCAu},
 568:.\Generated_Source\PSoC4/cyfitter_cfg.c **** 			{0xD0u, 0x0Fu},
 569:.\Generated_Source\PSoC4/cyfitter_cfg.c **** 			{0xD2u, 0x04u},
 570:.\Generated_Source\PSoC4/cyfitter_cfg.c **** 			{0xD6u, 0xD0u},
 571:.\Generated_Source\PSoC4/cyfitter_cfg.c **** 			{0xD8u, 0x0Eu},
 572:.\Generated_Source\PSoC4/cyfitter_cfg.c **** 			{0xE2u, 0x04u},
 573:.\Generated_Source\PSoC4/cyfitter_cfg.c **** 			{0xE4u, 0x08u},
 574:.\Generated_Source\PSoC4/cyfitter_cfg.c **** 			{0xE6u, 0x02u},
 575:.\Generated_Source\PSoC4/cyfitter_cfg.c **** 			{0x0Fu, 0x40u},
 576:.\Generated_Source\PSoC4/cyfitter_cfg.c **** 			{0x63u, 0x0Au},
 577:.\Generated_Source\PSoC4/cyfitter_cfg.c **** 			{0x83u, 0x04u},
 578:.\Generated_Source\PSoC4/cyfitter_cfg.c **** 			{0xC2u, 0x20u},
 579:.\Generated_Source\PSoC4/cyfitter_cfg.c **** 			{0xD6u, 0x40u},
 580:.\Generated_Source\PSoC4/cyfitter_cfg.c **** 			{0xD8u, 0x40u},
 581:.\Generated_Source\PSoC4/cyfitter_cfg.c **** 			{0xE6u, 0x20u},
ARM GAS  C:\Users\Samuel\AppData\Local\Temp\cckvrh5D.s 			page 22


 582:.\Generated_Source\PSoC4/cyfitter_cfg.c **** 			{0x52u, 0x08u},
 583:.\Generated_Source\PSoC4/cyfitter_cfg.c **** 			{0x58u, 0x10u},
 584:.\Generated_Source\PSoC4/cyfitter_cfg.c **** 			{0x82u, 0x08u},
 585:.\Generated_Source\PSoC4/cyfitter_cfg.c **** 			{0x84u, 0x10u},
 586:.\Generated_Source\PSoC4/cyfitter_cfg.c **** 			{0xAFu, 0x41u},
 587:.\Generated_Source\PSoC4/cyfitter_cfg.c **** 			{0xD4u, 0xA0u},
 588:.\Generated_Source\PSoC4/cyfitter_cfg.c **** 			{0xE2u, 0x20u},
 589:.\Generated_Source\PSoC4/cyfitter_cfg.c **** 			{0xE6u, 0x40u},
 590:.\Generated_Source\PSoC4/cyfitter_cfg.c **** 			{0xECu, 0x40u},
 591:.\Generated_Source\PSoC4/cyfitter_cfg.c **** 			{0xEEu, 0x10u},
 592:.\Generated_Source\PSoC4/cyfitter_cfg.c **** 			{0x63u, 0x02u},
 593:.\Generated_Source\PSoC4/cyfitter_cfg.c **** 			{0xD6u, 0x02u},
 594:.\Generated_Source\PSoC4/cyfitter_cfg.c **** 			{0x1Bu, 0x08u},
 595:.\Generated_Source\PSoC4/cyfitter_cfg.c **** 			{0x1Eu, 0x40u},
 596:.\Generated_Source\PSoC4/cyfitter_cfg.c **** 			{0x82u, 0x40u},
 597:.\Generated_Source\PSoC4/cyfitter_cfg.c **** 			{0x87u, 0x09u},
 598:.\Generated_Source\PSoC4/cyfitter_cfg.c **** 			{0xA7u, 0x01u},
 599:.\Generated_Source\PSoC4/cyfitter_cfg.c **** 			{0xC6u, 0x0Cu},
 600:.\Generated_Source\PSoC4/cyfitter_cfg.c **** 			{0x10u, 0x0Au},
 601:.\Generated_Source\PSoC4/cyfitter_cfg.c **** 			{0x11u, 0x01u},
 602:.\Generated_Source\PSoC4/cyfitter_cfg.c **** 		};
 603:.\Generated_Source\PSoC4/cyfitter_cfg.c **** 
 604:.\Generated_Source\PSoC4/cyfitter_cfg.c **** 
 605:.\Generated_Source\PSoC4/cyfitter_cfg.c **** 
 606:.\Generated_Source\PSoC4/cyfitter_cfg.c **** 		CYPACKED typedef struct {
 607:.\Generated_Source\PSoC4/cyfitter_cfg.c **** 			void CYFAR *address;
 608:.\Generated_Source\PSoC4/cyfitter_cfg.c **** 			uint16 size;
 609:.\Generated_Source\PSoC4/cyfitter_cfg.c **** 		} CYPACKED_ATTR cfg_memset_t;
 610:.\Generated_Source\PSoC4/cyfitter_cfg.c **** 
 611:.\Generated_Source\PSoC4/cyfitter_cfg.c **** 
 612:.\Generated_Source\PSoC4/cyfitter_cfg.c **** 		CYPACKED typedef struct {
 613:.\Generated_Source\PSoC4/cyfitter_cfg.c **** 			void CYFAR *dest;
 614:.\Generated_Source\PSoC4/cyfitter_cfg.c **** 			const void CYCODE *src;
 615:.\Generated_Source\PSoC4/cyfitter_cfg.c **** 			uint16 size;
 616:.\Generated_Source\PSoC4/cyfitter_cfg.c **** 		} CYPACKED_ATTR cfg_memcpy_t;
 617:.\Generated_Source\PSoC4/cyfitter_cfg.c **** 
 618:.\Generated_Source\PSoC4/cyfitter_cfg.c **** 		static const cfg_memset_t CYCODE cfg_memset_list [] = {
 619:.\Generated_Source\PSoC4/cyfitter_cfg.c **** 			/* address, size */
 620:.\Generated_Source\PSoC4/cyfitter_cfg.c **** 			{(void CYFAR *)(CYDEV_UDB_P0_U1_BASE), 512u},
 621:.\Generated_Source\PSoC4/cyfitter_cfg.c **** 			{(void CYFAR *)(CYDEV_UDB_P1_ROUTE_BASE), 256u},
 622:.\Generated_Source\PSoC4/cyfitter_cfg.c **** 			{(void CYFAR *)(CYDEV_UDB_DSI0_BASE), 1024u},
 623:.\Generated_Source\PSoC4/cyfitter_cfg.c **** 		};
 624:.\Generated_Source\PSoC4/cyfitter_cfg.c **** 
 625:.\Generated_Source\PSoC4/cyfitter_cfg.c **** 		/* UDB_0_1_0_CONFIG Address: CYDEV_UDB_P0_U0_BASE Size (bytes): 128 */
 626:.\Generated_Source\PSoC4/cyfitter_cfg.c **** 		static const uint8 CYCODE BS_UDB_0_1_0_CONFIG_VAL[] = {
 627:.\Generated_Source\PSoC4/cyfitter_cfg.c **** 			0x04u, 0x1Au, 0x00u, 0x00u, 0x01u, 0x18u, 0x00u, 0x02u, 0x60u, 0x02u, 0x00u, 0x18u, 0x07u, 0x33u
 628:.\Generated_Source\PSoC4/cyfitter_cfg.c **** 			0x04u, 0x18u, 0x80u, 0x02u, 0x0Au, 0xC1u, 0x10u, 0x38u, 0x00u, 0x00u, 0x00u, 0x00u, 0x56u, 0x9Cu
 629:.\Generated_Source\PSoC4/cyfitter_cfg.c **** 			0x84u, 0x18u, 0x00u, 0x00u, 0x84u, 0x82u, 0x00u, 0x00u, 0x80u, 0x00u, 0x04u, 0x00u, 0x84u, 0x1Au
 630:.\Generated_Source\PSoC4/cyfitter_cfg.c **** 			0x00u, 0x13u, 0x7Fu, 0x0Fu, 0x80u, 0x00u, 0x80u, 0xE0u, 0x08u, 0x00u, 0x00u, 0x88u, 0x00u, 0x00u
 631:.\Generated_Source\PSoC4/cyfitter_cfg.c **** 			0x40u, 0x03u, 0x00u, 0x00u, 0x00u, 0x00u, 0x00u, 0x00u, 0x00u, 0xFFu, 0xFFu, 0xFFu, 0x00u, 0xA0u
 632:.\Generated_Source\PSoC4/cyfitter_cfg.c **** 			0x18u, 0x00u, 0x00u, 0x00u, 0x00u, 0x00u, 0x02u, 0x28u, 0x04u, 0x04u, 0x04u, 0x04u, 0x11u, 0x13u
 633:.\Generated_Source\PSoC4/cyfitter_cfg.c **** 			0x40u, 0x00u, 0xC0u, 0x00u, 0x40u, 0x40u, 0xC0u, 0x00u, 0xC0u, 0x00u, 0xC0u, 0x00u, 0xC0u, 0x00u
 634:.\Generated_Source\PSoC4/cyfitter_cfg.c **** 			0x00u, 0x00u, 0x00u, 0x00u, 0x00u, 0x00u, 0x00u, 0x00u, 0x00u, 0x00u, 0x00u, 0x00u, 0x00u, 0x00u
 635:.\Generated_Source\PSoC4/cyfitter_cfg.c **** 
 636:.\Generated_Source\PSoC4/cyfitter_cfg.c **** 		/* UDB_0_0_0_CONFIG Address: CYDEV_UDB_P1_U1_BASE Size (bytes): 128 */
 637:.\Generated_Source\PSoC4/cyfitter_cfg.c **** 		static const uint8 CYCODE BS_UDB_0_0_0_CONFIG_VAL[] = {
 638:.\Generated_Source\PSoC4/cyfitter_cfg.c **** 			0x10u, 0x00u, 0x60u, 0x00u, 0x02u, 0x55u, 0x0Du, 0xAAu, 0x8Du, 0x00u, 0x40u, 0x00u, 0x01u, 0x33u
ARM GAS  C:\Users\Samuel\AppData\Local\Temp\cckvrh5D.s 			page 23


 639:.\Generated_Source\PSoC4/cyfitter_cfg.c **** 			0x4Du, 0x00u, 0x80u, 0x00u, 0x12u, 0x02u, 0x64u, 0x0Du, 0xCDu, 0xE0u, 0x00u, 0x00u, 0x72u, 0x49u
 640:.\Generated_Source\PSoC4/cyfitter_cfg.c **** 			0xCDu, 0x00u, 0x00u, 0x00u, 0xCDu, 0x00u, 0x00u, 0x00u, 0x00u, 0x00u, 0x00u, 0x00u, 0x00u, 0x00u
 641:.\Generated_Source\PSoC4/cyfitter_cfg.c **** 			0x70u, 0x00u, 0x80u, 0x0Fu, 0x0Fu, 0xF0u, 0x00u, 0x00u, 0x00u, 0x20u, 0x22u, 0x08u, 0x00u, 0x00u
 642:.\Generated_Source\PSoC4/cyfitter_cfg.c **** 			0x31u, 0x04u, 0x20u, 0x00u, 0x06u, 0xEBu, 0xF0u, 0xDCu, 0x3Bu, 0xFFu, 0xFFu, 0xFFu, 0x22u, 0x00u
 643:.\Generated_Source\PSoC4/cyfitter_cfg.c **** 			0x04u, 0x00u, 0x00u, 0x00u, 0x40u, 0x00u, 0x00u, 0x00u, 0x04u, 0x04u, 0x04u, 0x04u, 0x11u, 0x11u
 644:.\Generated_Source\PSoC4/cyfitter_cfg.c **** 			0x00u, 0x00u, 0xC0u, 0x00u, 0x40u, 0x01u, 0x10u, 0x11u, 0xC0u, 0x01u, 0x00u, 0x11u, 0x40u, 0x01u
 645:.\Generated_Source\PSoC4/cyfitter_cfg.c **** 			0x00u, 0x00u, 0x00u, 0x00u, 0x00u, 0x00u, 0x00u, 0x00u, 0x00u, 0x00u, 0x00u, 0x00u, 0x00u, 0x00u
 646:.\Generated_Source\PSoC4/cyfitter_cfg.c **** 
 647:.\Generated_Source\PSoC4/cyfitter_cfg.c **** 		static const cfg_memcpy_t CYCODE cfg_memcpy_list [] = {
 648:.\Generated_Source\PSoC4/cyfitter_cfg.c **** 			/* dest, src, size */
 649:.\Generated_Source\PSoC4/cyfitter_cfg.c **** 			{(void CYFAR *)(CYDEV_UDB_P0_U0_BASE), BS_UDB_0_1_0_CONFIG_VAL, 128u},
 650:.\Generated_Source\PSoC4/cyfitter_cfg.c **** 			{(void CYFAR *)(CYDEV_UDB_P1_U1_BASE), BS_UDB_0_0_0_CONFIG_VAL, 128u},
 651:.\Generated_Source\PSoC4/cyfitter_cfg.c **** 		};
 652:.\Generated_Source\PSoC4/cyfitter_cfg.c **** 
 653:.\Generated_Source\PSoC4/cyfitter_cfg.c **** 		uint8 CYDATA i;
 654:.\Generated_Source\PSoC4/cyfitter_cfg.c **** 
 655:.\Generated_Source\PSoC4/cyfitter_cfg.c **** 		/* Zero out critical memory blocks before beginning configuration */
 656:.\Generated_Source\PSoC4/cyfitter_cfg.c **** 		for (i = 0u; i < (sizeof(cfg_memset_list)/sizeof(cfg_memset_list[0])); i++)
 611              		.loc 1 656 0
 612 01c0 3B1C     		mov	r3, r7
 613 01c2 1733     		add	r3, r3, #23
 614 01c4 0022     		mov	r2, #0
 615 01c6 1A70     		strb	r2, [r3]
 616 01c8 26E0     		b	.L27
 617              	.L28:
 618              	.LBB4:
 657:.\Generated_Source\PSoC4/cyfitter_cfg.c **** 		{
 658:.\Generated_Source\PSoC4/cyfitter_cfg.c **** 			const cfg_memset_t CYCODE * CYDATA ms = &cfg_memset_list[i];
 619              		.loc 1 658 0 discriminator 2
 620 01ca 3B1C     		mov	r3, r7
 621 01cc 1733     		add	r3, r3, #23
 622 01ce 1A78     		ldrb	r2, [r3]
 623 01d0 131C     		mov	r3, r2
 624 01d2 5B00     		lsl	r3, r3, #1
 625 01d4 9B18     		add	r3, r3, r2
 626 01d6 5B00     		lsl	r3, r3, #1
 627 01d8 774A     		ldr	r2, .L31
 628 01da 9B18     		add	r3, r3, r2
 629 01dc 3B61     		str	r3, [r7, #16]
 659:.\Generated_Source\PSoC4/cyfitter_cfg.c **** 			CYMEMZERO(ms->address, (size_t)(uint32)(ms->size));
 630              		.loc 1 659 0 discriminator 2
 631 01de 3B69     		ldr	r3, [r7, #16]
 632 01e0 1A78     		ldrb	r2, [r3]
 633 01e2 5978     		ldrb	r1, [r3, #1]
 634 01e4 0902     		lsl	r1, r1, #8
 635 01e6 0A43     		orr	r2, r1
 636 01e8 9978     		ldrb	r1, [r3, #2]
 637 01ea 0904     		lsl	r1, r1, #16
 638 01ec 0A43     		orr	r2, r1
 639 01ee DB78     		ldrb	r3, [r3, #3]
 640 01f0 1B06     		lsl	r3, r3, #24
 641 01f2 1343     		orr	r3, r2
 642 01f4 1A1C     		mov	r2, r3
 643 01f6 3B69     		ldr	r3, [r7, #16]
 644 01f8 1979     		ldrb	r1, [r3, #4]
 645 01fa 5B79     		ldrb	r3, [r3, #5]
 646 01fc 1B02     		lsl	r3, r3, #8
ARM GAS  C:\Users\Samuel\AppData\Local\Temp\cckvrh5D.s 			page 24


 647 01fe 0B43     		orr	r3, r1
 648 0200 9BB2     		uxth	r3, r3
 649 0202 101C     		mov	r0, r2
 650 0204 191C     		mov	r1, r3
 651 0206 FFF7FEFF 		bl	CYMEMZERO
 652              	.LBE4:
 656:.\Generated_Source\PSoC4/cyfitter_cfg.c **** 		for (i = 0u; i < (sizeof(cfg_memset_list)/sizeof(cfg_memset_list[0])); i++)
 653              		.loc 1 656 0 discriminator 2
 654 020a 3B1C     		mov	r3, r7
 655 020c 1733     		add	r3, r3, #23
 656 020e 1A78     		ldrb	r2, [r3]
 657 0210 3B1C     		mov	r3, r7
 658 0212 1733     		add	r3, r3, #23
 659 0214 0132     		add	r2, r2, #1
 660 0216 1A70     		strb	r2, [r3]
 661              	.L27:
 656:.\Generated_Source\PSoC4/cyfitter_cfg.c **** 		for (i = 0u; i < (sizeof(cfg_memset_list)/sizeof(cfg_memset_list[0])); i++)
 662              		.loc 1 656 0 is_stmt 0 discriminator 1
 663 0218 3B1C     		mov	r3, r7
 664 021a 1733     		add	r3, r3, #23
 665 021c 1B78     		ldrb	r3, [r3]
 666 021e 022B     		cmp	r3, #2
 667 0220 D3D9     		bls	.L28
 660:.\Generated_Source\PSoC4/cyfitter_cfg.c **** 		}
 661:.\Generated_Source\PSoC4/cyfitter_cfg.c **** 
 662:.\Generated_Source\PSoC4/cyfitter_cfg.c **** 		/* Copy device configuration data into registers */
 663:.\Generated_Source\PSoC4/cyfitter_cfg.c **** 		for (i = 0u; i < (sizeof(cfg_memcpy_list)/sizeof(cfg_memcpy_list[0])); i++)
 668              		.loc 1 663 0 is_stmt 1
 669 0222 3B1C     		mov	r3, r7
 670 0224 1733     		add	r3, r3, #23
 671 0226 0022     		mov	r2, #0
 672 0228 1A70     		strb	r2, [r3]
 673 022a 38E0     		b	.L29
 674              	.L30:
 675              	.LBB5:
 664:.\Generated_Source\PSoC4/cyfitter_cfg.c **** 		{
 665:.\Generated_Source\PSoC4/cyfitter_cfg.c **** 			const cfg_memcpy_t CYCODE * CYDATA mc = &cfg_memcpy_list[i];
 676              		.loc 1 665 0 discriminator 2
 677 022c 3B1C     		mov	r3, r7
 678 022e 1733     		add	r3, r3, #23
 679 0230 1A78     		ldrb	r2, [r3]
 680 0232 131C     		mov	r3, r2
 681 0234 9B00     		lsl	r3, r3, #2
 682 0236 9B18     		add	r3, r3, r2
 683 0238 5B00     		lsl	r3, r3, #1
 684 023a 604A     		ldr	r2, .L31+4
 685 023c 9B18     		add	r3, r3, r2
 686 023e FB60     		str	r3, [r7, #12]
 666:.\Generated_Source\PSoC4/cyfitter_cfg.c **** 			void * CYDATA destPtr = mc->dest;
 687              		.loc 1 666 0 discriminator 2
 688 0240 FB68     		ldr	r3, [r7, #12]
 689 0242 1A78     		ldrb	r2, [r3]
 690 0244 5978     		ldrb	r1, [r3, #1]
 691 0246 0902     		lsl	r1, r1, #8
 692 0248 0A43     		orr	r2, r1
 693 024a 9978     		ldrb	r1, [r3, #2]
 694 024c 0904     		lsl	r1, r1, #16
ARM GAS  C:\Users\Samuel\AppData\Local\Temp\cckvrh5D.s 			page 25


 695 024e 0A43     		orr	r2, r1
 696 0250 DB78     		ldrb	r3, [r3, #3]
 697 0252 1B06     		lsl	r3, r3, #24
 698 0254 1343     		orr	r3, r2
 699 0256 BB60     		str	r3, [r7, #8]
 667:.\Generated_Source\PSoC4/cyfitter_cfg.c **** 			const void CYCODE * CYDATA srcPtr = mc->src;
 700              		.loc 1 667 0 discriminator 2
 701 0258 FB68     		ldr	r3, [r7, #12]
 702 025a 1A79     		ldrb	r2, [r3, #4]
 703 025c 5979     		ldrb	r1, [r3, #5]
 704 025e 0902     		lsl	r1, r1, #8
 705 0260 0A43     		orr	r2, r1
 706 0262 9979     		ldrb	r1, [r3, #6]
 707 0264 0904     		lsl	r1, r1, #16
 708 0266 0A43     		orr	r2, r1
 709 0268 DB79     		ldrb	r3, [r3, #7]
 710 026a 1B06     		lsl	r3, r3, #24
 711 026c 1343     		orr	r3, r2
 712 026e 7B60     		str	r3, [r7, #4]
 668:.\Generated_Source\PSoC4/cyfitter_cfg.c **** 			uint16 CYDATA numBytes = mc->size;
 713              		.loc 1 668 0 discriminator 2
 714 0270 BA1C     		add	r2, r7, #2
 715 0272 FB68     		ldr	r3, [r7, #12]
 716 0274 197A     		ldrb	r1, [r3, #8]
 717 0276 5B7A     		ldrb	r3, [r3, #9]
 718 0278 1B02     		lsl	r3, r3, #8
 719 027a 0B43     		orr	r3, r1
 720 027c 1380     		strh	r3, [r2]
 669:.\Generated_Source\PSoC4/cyfitter_cfg.c **** 			CYCONFIGCPYCODE(destPtr, srcPtr, numBytes);
 721              		.loc 1 669 0 discriminator 2
 722 027e BB1C     		add	r3, r7, #2
 723 0280 1B88     		ldrh	r3, [r3]
 724 0282 B968     		ldr	r1, [r7, #8]
 725 0284 7A68     		ldr	r2, [r7, #4]
 726 0286 081C     		mov	r0, r1
 727 0288 111C     		mov	r1, r2
 728 028a 1A1C     		mov	r2, r3
 729 028c FFF7FEFF 		bl	CYCONFIGCPYCODE
 730              	.LBE5:
 663:.\Generated_Source\PSoC4/cyfitter_cfg.c **** 		for (i = 0u; i < (sizeof(cfg_memcpy_list)/sizeof(cfg_memcpy_list[0])); i++)
 731              		.loc 1 663 0 discriminator 2
 732 0290 3B1C     		mov	r3, r7
 733 0292 1733     		add	r3, r3, #23
 734 0294 1A78     		ldrb	r2, [r3]
 735 0296 3B1C     		mov	r3, r7
 736 0298 1733     		add	r3, r3, #23
 737 029a 0132     		add	r2, r2, #1
 738 029c 1A70     		strb	r2, [r3]
 739              	.L29:
 663:.\Generated_Source\PSoC4/cyfitter_cfg.c **** 		for (i = 0u; i < (sizeof(cfg_memcpy_list)/sizeof(cfg_memcpy_list[0])); i++)
 740              		.loc 1 663 0 is_stmt 0 discriminator 1
 741 029e 3B1C     		mov	r3, r7
 742 02a0 1733     		add	r3, r3, #23
 743 02a2 1B78     		ldrb	r3, [r3]
 744 02a4 012B     		cmp	r3, #1
 745 02a6 C1D9     		bls	.L30
 670:.\Generated_Source\PSoC4/cyfitter_cfg.c **** 		}
ARM GAS  C:\Users\Samuel\AppData\Local\Temp\cckvrh5D.s 			page 26


 671:.\Generated_Source\PSoC4/cyfitter_cfg.c **** 
 672:.\Generated_Source\PSoC4/cyfitter_cfg.c **** 		cfg_write_bytes32(cy_cfg_addr_table, cy_cfg_data_table);
 746              		.loc 1 672 0 is_stmt 1
 747 02a8 454A     		ldr	r2, .L31+8
 748 02aa 464B     		ldr	r3, .L31+12
 749 02ac 101C     		mov	r0, r2
 750 02ae 191C     		mov	r1, r3
 751 02b0 FFF7FEFF 		bl	cfg_write_bytes32
 673:.\Generated_Source\PSoC4/cyfitter_cfg.c **** 
 674:.\Generated_Source\PSoC4/cyfitter_cfg.c **** 		/* Perform normal device configuration. Order is not critical for these items. */
 675:.\Generated_Source\PSoC4/cyfitter_cfg.c **** 		CY_SET_XTND_REG16((void CYFAR *)(CYREG_UDB_BCTL0_DRV), 0x0A00u);
 752              		.loc 1 675 0
 753 02b4 444B     		ldr	r3, .L31+16
 754 02b6 A022     		mov	r2, #160
 755 02b8 1201     		lsl	r2, r2, #4
 756 02ba 1A80     		strh	r2, [r3]
 676:.\Generated_Source\PSoC4/cyfitter_cfg.c **** 		CY_SET_XTND_REG8((void CYFAR *)(CYREG_UDB_BCTL0_DRV + 0x2u), 0x01u);
 757              		.loc 1 676 0
 758 02bc 434B     		ldr	r3, .L31+20
 759 02be 0122     		mov	r2, #1
 760 02c0 1A70     		strb	r2, [r3]
 677:.\Generated_Source\PSoC4/cyfitter_cfg.c **** 
 678:.\Generated_Source\PSoC4/cyfitter_cfg.c **** 		/* HSIOM Starting address: CYDEV_HSIOM_BASE */
 679:.\Generated_Source\PSoC4/cyfitter_cfg.c **** 		CY_SET_XTND_REG32((void CYFAR *)(CYDEV_HSIOM_BASE), 0x03030000u);
 761              		.loc 1 679 0
 762 02c2 434B     		ldr	r3, .L31+24
 763 02c4 434A     		ldr	r2, .L31+28
 764 02c6 1A60     		str	r2, [r3]
 680:.\Generated_Source\PSoC4/cyfitter_cfg.c **** 		CY_SET_XTND_REG32((void CYFAR *)(CYREG_HSIOM_PORT_SEL1), 0x00000338u);
 765              		.loc 1 680 0
 766 02c8 434B     		ldr	r3, .L31+32
 767 02ca CE22     		mov	r2, #206
 768 02cc 9200     		lsl	r2, r2, #2
 769 02ce 1A60     		str	r2, [r3]
 681:.\Generated_Source\PSoC4/cyfitter_cfg.c **** 		CY_SET_XTND_REG32((void CYFAR *)(CYREG_HSIOM_PORT_SEL2), 0x00030000u);
 770              		.loc 1 681 0
 771 02d0 424B     		ldr	r3, .L31+36
 772 02d2 C022     		mov	r2, #192
 773 02d4 9202     		lsl	r2, r2, #10
 774 02d6 1A60     		str	r2, [r3]
 682:.\Generated_Source\PSoC4/cyfitter_cfg.c **** 		CY_SET_XTND_REG32((void CYFAR *)(CYREG_HSIOM_PORT_SEL3), 0x0000EE99u);
 775              		.loc 1 682 0
 776 02d8 414B     		ldr	r3, .L31+40
 777 02da 424A     		ldr	r2, .L31+44
 778 02dc 1A60     		str	r2, [r3]
 683:.\Generated_Source\PSoC4/cyfitter_cfg.c **** 		CY_SET_XTND_REG32((void CYFAR *)(CYREG_HSIOM_PORT_SEL4), 0x00000099u);
 779              		.loc 1 683 0
 780 02de 424B     		ldr	r3, .L31+48
 781 02e0 9922     		mov	r2, #153
 782 02e2 1A60     		str	r2, [r3]
 684:.\Generated_Source\PSoC4/cyfitter_cfg.c **** 
 685:.\Generated_Source\PSoC4/cyfitter_cfg.c **** 		/* IOPINS0_0 Starting address: CYDEV_PRT0_DR */
 686:.\Generated_Source\PSoC4/cyfitter_cfg.c **** 		CY_SET_XTND_REG32((void CYFAR *)(CYREG_PRT0_DR), 0x00000050u);
 783              		.loc 1 686 0
 784 02e4 414B     		ldr	r3, .L31+52
 785 02e6 5022     		mov	r2, #80
 786 02e8 1A60     		str	r2, [r3]
ARM GAS  C:\Users\Samuel\AppData\Local\Temp\cckvrh5D.s 			page 27


 687:.\Generated_Source\PSoC4/cyfitter_cfg.c **** 		CY_SET_XTND_REG32((void CYFAR *)(CYREG_PRT0_PC), 0x0018ED89u);
 787              		.loc 1 687 0
 788 02ea 414B     		ldr	r3, .L31+56
 789 02ec 414A     		ldr	r2, .L31+60
 790 02ee 1A60     		str	r2, [r3]
 688:.\Generated_Source\PSoC4/cyfitter_cfg.c **** 
 689:.\Generated_Source\PSoC4/cyfitter_cfg.c **** 		/* IOPINS0_1 Starting address: CYDEV_PRT1_DR */
 690:.\Generated_Source\PSoC4/cyfitter_cfg.c **** 		CY_SET_XTND_REG32((void CYFAR *)(CYREG_PRT1_DR), 0x00000007u);
 791              		.loc 1 690 0
 792 02f0 414B     		ldr	r3, .L31+64
 793 02f2 0722     		mov	r2, #7
 794 02f4 1A60     		str	r2, [r3]
 691:.\Generated_Source\PSoC4/cyfitter_cfg.c **** 		CY_SET_XTND_REG32((void CYFAR *)(CYREG_PRT1_PC), 0x001801B6u);
 795              		.loc 1 691 0
 796 02f6 414B     		ldr	r3, .L31+68
 797 02f8 414A     		ldr	r2, .L31+72
 798 02fa 1A60     		str	r2, [r3]
 692:.\Generated_Source\PSoC4/cyfitter_cfg.c **** 
 693:.\Generated_Source\PSoC4/cyfitter_cfg.c **** 		/* IOPINS0_2 Starting address: CYDEV_PRT2_DR */
 694:.\Generated_Source\PSoC4/cyfitter_cfg.c **** 		CY_SET_XTND_REG32((void CYFAR *)(CYREG_PRT2_DR), 0x0000001Fu);
 799              		.loc 1 694 0
 800 02fc 414B     		ldr	r3, .L31+76
 801 02fe 1F22     		mov	r2, #31
 802 0300 1A60     		str	r2, [r3]
 695:.\Generated_Source\PSoC4/cyfitter_cfg.c **** 		CY_SET_XTND_REG32((void CYFAR *)(CYREG_PRT2_PC), 0x00006000u);
 803              		.loc 1 695 0
 804 0302 414B     		ldr	r3, .L31+80
 805 0304 C022     		mov	r2, #192
 806 0306 D201     		lsl	r2, r2, #7
 807 0308 1A60     		str	r2, [r3]
 696:.\Generated_Source\PSoC4/cyfitter_cfg.c **** 		CY_SET_XTND_REG32((void CYFAR *)(CYREG_PRT2_PC2), 0x0000000Fu);
 808              		.loc 1 696 0
 809 030a 404B     		ldr	r3, .L31+84
 810 030c 0F22     		mov	r2, #15
 811 030e 1A60     		str	r2, [r3]
 697:.\Generated_Source\PSoC4/cyfitter_cfg.c **** 
 698:.\Generated_Source\PSoC4/cyfitter_cfg.c **** 		/* IOPINS0_3 Starting address: CYDEV_PRT3_DR */
 699:.\Generated_Source\PSoC4/cyfitter_cfg.c **** 		CY_SET_XTND_REG32((void CYFAR *)(CYREG_PRT3_DR), 0x000000F2u);
 812              		.loc 1 699 0
 813 0310 3F4B     		ldr	r3, .L31+88
 814 0312 F222     		mov	r2, #242
 815 0314 1A60     		str	r2, [r3]
 700:.\Generated_Source\PSoC4/cyfitter_cfg.c **** 		CY_SET_XTND_REG32((void CYFAR *)(CYREG_PRT3_PC), 0x00492DB1u);
 816              		.loc 1 700 0
 817 0316 3F4B     		ldr	r3, .L31+92
 818 0318 3F4A     		ldr	r2, .L31+96
 819 031a 1A60     		str	r2, [r3]
 701:.\Generated_Source\PSoC4/cyfitter_cfg.c **** 		CY_SET_XTND_REG32((void CYFAR *)(CYREG_PRT3_PC2), 0x00000002u);
 820              		.loc 1 701 0
 821 031c 3F4B     		ldr	r3, .L31+100
 822 031e 0222     		mov	r2, #2
 823 0320 1A60     		str	r2, [r3]
 702:.\Generated_Source\PSoC4/cyfitter_cfg.c **** 
 703:.\Generated_Source\PSoC4/cyfitter_cfg.c **** 		/* IOPINS0_4 Starting address: CYDEV_PRT4_DR */
 704:.\Generated_Source\PSoC4/cyfitter_cfg.c **** 		CY_SET_XTND_REG32((void CYFAR *)(CYREG_PRT4_DR), 0x00000002u);
 824              		.loc 1 704 0
 825 0322 3F4B     		ldr	r3, .L31+104
ARM GAS  C:\Users\Samuel\AppData\Local\Temp\cckvrh5D.s 			page 28


 826 0324 0222     		mov	r2, #2
 827 0326 1A60     		str	r2, [r3]
 705:.\Generated_Source\PSoC4/cyfitter_cfg.c **** 		CY_SET_XTND_REG32((void CYFAR *)(CYREG_PRT4_PC), 0x00000031u);
 828              		.loc 1 705 0
 829 0328 3E4B     		ldr	r3, .L31+108
 830 032a 3122     		mov	r2, #49
 831 032c 1A60     		str	r2, [r3]
 706:.\Generated_Source\PSoC4/cyfitter_cfg.c **** 		CY_SET_XTND_REG32((void CYFAR *)(CYREG_PRT4_PC2), 0x00000002u);
 832              		.loc 1 706 0
 833 032e 3E4B     		ldr	r3, .L31+112
 834 0330 0222     		mov	r2, #2
 835 0332 1A60     		str	r2, [r3]
 707:.\Generated_Source\PSoC4/cyfitter_cfg.c **** 
 708:.\Generated_Source\PSoC4/cyfitter_cfg.c **** 		/* UDB_PA_0 Starting address: CYDEV_UDB_PA0_BASE */
 709:.\Generated_Source\PSoC4/cyfitter_cfg.c **** 		CY_SET_XTND_REG32((void CYFAR *)(CYDEV_UDB_PA0_BASE), 0x00990000u);
 836              		.loc 1 709 0
 837 0334 3D4B     		ldr	r3, .L31+116
 838 0336 9922     		mov	r2, #153
 839 0338 1204     		lsl	r2, r2, #16
 840 033a 1A60     		str	r2, [r3]
 710:.\Generated_Source\PSoC4/cyfitter_cfg.c **** 		CY_SET_XTND_REG32((void CYFAR *)(CYREG_UDB_PA0_CFG4), 0x000A0000u);
 841              		.loc 1 710 0
 842 033c 3C4B     		ldr	r3, .L31+120
 843 033e A022     		mov	r2, #160
 844 0340 1203     		lsl	r2, r2, #12
 845 0342 1A60     		str	r2, [r3]
 711:.\Generated_Source\PSoC4/cyfitter_cfg.c **** 		CY_SET_XTND_REG32((void CYFAR *)(CYREG_UDB_PA0_CFG8), 0x20000000u);
 846              		.loc 1 711 0
 847 0344 3B4B     		ldr	r3, .L31+124
 848 0346 8022     		mov	r2, #128
 849 0348 9205     		lsl	r2, r2, #22
 850 034a 1A60     		str	r2, [r3]
 712:.\Generated_Source\PSoC4/cyfitter_cfg.c **** 
 713:.\Generated_Source\PSoC4/cyfitter_cfg.c **** 		/* UDB_PA_1 Starting address: CYDEV_UDB_PA1_BASE */
 714:.\Generated_Source\PSoC4/cyfitter_cfg.c **** 		CY_SET_XTND_REG32((void CYFAR *)(CYDEV_UDB_PA1_BASE), 0x00990000u);
 851              		.loc 1 714 0
 852 034c 3A4B     		ldr	r3, .L31+128
 853 034e 9922     		mov	r2, #153
 854 0350 1204     		lsl	r2, r2, #16
 855 0352 1A60     		str	r2, [r3]
 715:.\Generated_Source\PSoC4/cyfitter_cfg.c **** 		CY_SET_XTND_REG32((void CYFAR *)(CYREG_UDB_PA1_CFG8), 0x00090000u);
 856              		.loc 1 715 0
 857 0354 394B     		ldr	r3, .L31+132
 858 0356 9022     		mov	r2, #144
 859 0358 1203     		lsl	r2, r2, #12
 860 035a 1A60     		str	r2, [r3]
 716:.\Generated_Source\PSoC4/cyfitter_cfg.c **** 
 717:.\Generated_Source\PSoC4/cyfitter_cfg.c **** 		/* UDB_PA_2 Starting address: CYDEV_UDB_PA2_BASE */
 718:.\Generated_Source\PSoC4/cyfitter_cfg.c **** 		CY_SET_XTND_REG32((void CYFAR *)(CYDEV_UDB_PA2_BASE), 0x00990000u);
 861              		.loc 1 718 0
 862 035c 384B     		ldr	r3, .L31+136
 863 035e 9922     		mov	r2, #153
 864 0360 1204     		lsl	r2, r2, #16
 865 0362 1A60     		str	r2, [r3]
 719:.\Generated_Source\PSoC4/cyfitter_cfg.c **** 
 720:.\Generated_Source\PSoC4/cyfitter_cfg.c **** 		/* UDB_PA_3 Starting address: CYDEV_UDB_PA3_BASE */
 721:.\Generated_Source\PSoC4/cyfitter_cfg.c **** 		CY_SET_XTND_REG32((void CYFAR *)(CYDEV_UDB_PA3_BASE), 0x00990000u);
ARM GAS  C:\Users\Samuel\AppData\Local\Temp\cckvrh5D.s 			page 29


 866              		.loc 1 721 0
 867 0364 374B     		ldr	r3, .L31+140
 868 0366 9922     		mov	r2, #153
 869 0368 1204     		lsl	r2, r2, #16
 870 036a 1A60     		str	r2, [r3]
 722:.\Generated_Source\PSoC4/cyfitter_cfg.c **** 		CY_SET_XTND_REG32((void CYFAR *)(CYREG_UDB_PA3_CFG4), 0xAA000000u);
 871              		.loc 1 722 0
 872 036c 364B     		ldr	r3, .L31+144
 873 036e AA22     		mov	r2, #170
 874 0370 1206     		lsl	r2, r2, #24
 875 0372 1A60     		str	r2, [r3]
 723:.\Generated_Source\PSoC4/cyfitter_cfg.c **** 
 724:.\Generated_Source\PSoC4/cyfitter_cfg.c **** 		/* Enable digital routing */
 725:.\Generated_Source\PSoC4/cyfitter_cfg.c **** 		CY_SET_XTND_REG8((void *)CYREG_UDB_UDBIF_BANK_CTL, CY_GET_XTND_REG8((void *)CYREG_UDB_UDBIF_BANK_
 876              		.loc 1 725 0
 877 0374 354B     		ldr	r3, .L31+148
 878 0376 354A     		ldr	r2, .L31+148
 879 0378 1278     		ldrb	r2, [r2]
 880 037a D2B2     		uxtb	r2, r2
 881 037c 0221     		mov	r1, #2
 882 037e 0A43     		orr	r2, r1
 883 0380 D2B2     		uxtb	r2, r2
 884 0382 1A70     		strb	r2, [r3]
 726:.\Generated_Source\PSoC4/cyfitter_cfg.c **** 
 727:.\Generated_Source\PSoC4/cyfitter_cfg.c **** 		/* Enable UDB array */
 728:.\Generated_Source\PSoC4/cyfitter_cfg.c **** 		CY_SET_XTND_REG8((void *)CYREG_UDB_UDBIF_WAIT_CFG, (CY_GET_XTND_REG8((void *)CYREG_UDB_UDBIF_WAIT
 885              		.loc 1 728 0
 886 0384 324B     		ldr	r3, .L31+152
 887 0386 324A     		ldr	r2, .L31+152
 888 0388 1278     		ldrb	r2, [r2]
 889 038a D2B2     		uxtb	r2, r2
 890 038c 0C21     		mov	r1, #12
 891 038e 8A43     		bic	r2, r1
 892 0390 D2B2     		uxtb	r2, r2
 893 0392 0421     		mov	r1, #4
 894 0394 0A43     		orr	r2, r1
 895 0396 D2B2     		uxtb	r2, r2
 896 0398 1A70     		strb	r2, [r3]
 729:.\Generated_Source\PSoC4/cyfitter_cfg.c **** 		CY_SET_XTND_REG8((void *)CYREG_UDB_UDBIF_BANK_CTL, CY_GET_XTND_REG8((void *)CYREG_UDB_UDBIF_BANK_
 897              		.loc 1 729 0
 898 039a 2C4B     		ldr	r3, .L31+148
 899 039c 2B4A     		ldr	r2, .L31+148
 900 039e 1278     		ldrb	r2, [r2]
 901 03a0 D2B2     		uxtb	r2, r2
 902 03a2 1621     		mov	r1, #22
 903 03a4 0A43     		orr	r2, r1
 904 03a6 D2B2     		uxtb	r2, r2
 905 03a8 1A70     		strb	r2, [r3]
 906              	.LBE3:
 730:.\Generated_Source\PSoC4/cyfitter_cfg.c **** 	}
 731:.\Generated_Source\PSoC4/cyfitter_cfg.c **** 
 732:.\Generated_Source\PSoC4/cyfitter_cfg.c **** 	/* Setup clocks based on selections from Clock DWR */
 733:.\Generated_Source\PSoC4/cyfitter_cfg.c **** 	ClockSetup();
 907              		.loc 1 733 0
 908 03aa FFF77BFE 		bl	ClockSetup
 734:.\Generated_Source\PSoC4/cyfitter_cfg.c **** 
 735:.\Generated_Source\PSoC4/cyfitter_cfg.c **** 	/* Perform basic analog initialization to defaults */
ARM GAS  C:\Users\Samuel\AppData\Local\Temp\cckvrh5D.s 			page 30


 736:.\Generated_Source\PSoC4/cyfitter_cfg.c **** 	AnalogSetDefault();
 909              		.loc 1 736 0
 910 03ae FFF7FEFF 		bl	AnalogSetDefault
 737:.\Generated_Source\PSoC4/cyfitter_cfg.c **** 
 738:.\Generated_Source\PSoC4/cyfitter_cfg.c **** }
 911              		.loc 1 738 0
 912 03b2 BD46     		mov	sp, r7
 913 03b4 06B0     		add	sp, sp, #24
 914              		@ sp needed
 915 03b6 80BD     		pop	{r7, pc}
 916              	.L32:
 917              		.align	2
 918              	.L31:
 919 03b8 04000000 		.word	cfg_memset_list.4746
 920 03bc 18000000 		.word	cfg_memcpy_list.4749
 921 03c0 2C000000 		.word	cy_cfg_addr_table.4735
 922 03c4 54000000 		.word	cy_cfg_data_table.4736
 923 03c8 00600F40 		.word	1074749440
 924 03cc 02600F40 		.word	1074749442
 925 03d0 00000140 		.word	1073807360
 926 03d4 00000303 		.word	50528256
 927 03d8 04000140 		.word	1073807364
 928 03dc 08000140 		.word	1073807368
 929 03e0 0C000140 		.word	1073807372
 930 03e4 99EE0000 		.word	61081
 931 03e8 10000140 		.word	1073807376
 932 03ec 00000440 		.word	1074003968
 933 03f0 08000440 		.word	1074003976
 934 03f4 89ED1800 		.word	1633673
 935 03f8 00010440 		.word	1074004224
 936 03fc 08010440 		.word	1074004232
 937 0400 B6011800 		.word	1573302
 938 0404 00020440 		.word	1074004480
 939 0408 08020440 		.word	1074004488
 940 040c 18020440 		.word	1074004504
 941 0410 00030440 		.word	1074004736
 942 0414 08030440 		.word	1074004744
 943 0418 B12D4900 		.word	4795825
 944 041c 18030440 		.word	1074004760
 945 0420 00040440 		.word	1074004992
 946 0424 08040440 		.word	1074005000
 947 0428 18040440 		.word	1074005016
 948 042c 00500F40 		.word	1074745344
 949 0430 04500F40 		.word	1074745348
 950 0434 08500F40 		.word	1074745352
 951 0438 10500F40 		.word	1074745360
 952 043c 18500F40 		.word	1074745368
 953 0440 20500F40 		.word	1074745376
 954 0444 30500F40 		.word	1074745392
 955 0448 34500F40 		.word	1074745396
 956 044c 00700F40 		.word	1074753536
 957 0450 01700F40 		.word	1074753537
 958              		.cfi_endproc
 959              	.LFE8:
 960              		.size	cyfitter_cfg, .-cyfitter_cfg
 961              		.data
 962              		.align	2
ARM GAS  C:\Users\Samuel\AppData\Local\Temp\cckvrh5D.s 			page 31


 963              		.type	imo_trim_table.4710, %object
 964              		.size	imo_trim_table.4710, 4
 965              	imo_trim_table.4710:
 966 0000 C0F1FF0F 		.word	268431808
 967              		.section	.rodata
 968              		.align	2
 969              		.type	IMO_TRIM_FREQ_TABLE_ENTRIES.4711, %object
 970              		.size	IMO_TRIM_FREQ_TABLE_ENTRIES.4711, 4
 971              	IMO_TRIM_FREQ_TABLE_ENTRIES.4711:
 972 0000 04000000 		.word	4
 973              		.align	2
 974              		.type	cfg_memset_list.4746, %object
 975              		.size	cfg_memset_list.4746, 18
 976              	cfg_memset_list.4746:
 977 0004 80300F40 		.word	1074737280
 978 0008 0002     		.short	512
 979 000a 00330F40 		.4byte	1074737920
 980 000e 0001     		.short	256
 981 0010 00400F40 		.word	1074741248
 982 0014 0004     		.short	1024
 983 0016 0000     		.align	2
 984              		.type	cfg_memcpy_list.4749, %object
 985              		.size	cfg_memcpy_list.4749, 20
 986              	cfg_memcpy_list.4749:
 987 0018 00300F40 		.word	1074737152
 988 001c 80020000 		.word	BS_UDB_0_1_0_CONFIG_VAL.4747
 989 0020 8000     		.short	128
 990 0022 80320F40 		.4byte	1074737792
 991 0026 00020000 		.4byte	BS_UDB_0_0_0_CONFIG_VAL.4748
 992 002a 8000     		.short	128
 993              		.align	2
 994              		.type	cy_cfg_addr_table.4735, %object
 995              		.size	cy_cfg_addr_table.4735, 40
 996              	cy_cfg_addr_table.4735:
 997 002c 02000F40 		.word	1074724866
 998 0030 28300F40 		.word	1074737192
 999 0034 34310F40 		.word	1074737460
 1000 0038 16320F40 		.word	1074737686
 1001 003c 47330F40 		.word	1074737991
 1002 0040 07400F40 		.word	1074741255
 1003 0044 0A410F40 		.word	1074741514
 1004 0048 02420F40 		.word	1074741762
 1005 004c 06430F40 		.word	1074742022
 1006 0050 02600F40 		.word	1074749442
 1007              		.align	2
 1008              		.type	cy_cfg_data_table.4736, %object
 1009              		.size	cy_cfg_data_table.4736, 428
 1010              	cy_cfg_data_table.4736:
 1011 0054 80       		.byte	-128
 1012 0055 0F       		.byte	15
 1013 0056 82       		.byte	-126
 1014 0057 0D       		.byte	13
 1015 0058 8C       		.byte	-116
 1016 0059 06       		.byte	6
 1017 005a 8E       		.byte	-114
 1018 005b 08       		.byte	8
 1019 005c 94       		.byte	-108
ARM GAS  C:\Users\Samuel\AppData\Local\Temp\cckvrh5D.s 			page 32


 1020 005d 0C       		.byte	12
 1021 005e 96       		.byte	-106
 1022 005f 03       		.byte	3
 1023 0060 9A       		.byte	-102
 1024 0061 01       		.byte	1
 1025 0062 AC       		.byte	-84
 1026 0063 04       		.byte	4
 1027 0064 AE       		.byte	-82
 1028 0065 0B       		.byte	11
 1029 0066 B0       		.byte	-80
 1030 0067 08       		.byte	8
 1031 0068 B4       		.byte	-76
 1032 0069 03       		.byte	3
 1033 006a B6       		.byte	-74
 1034 006b 04       		.byte	4
 1035 006c BE       		.byte	-66
 1036 006d 41       		.byte	65
 1037 006e C0       		.byte	-64
 1038 006f 40       		.byte	64
 1039 0070 C1       		.byte	-63
 1040 0071 03       		.byte	3
 1041 0072 C5       		.byte	-59
 1042 0073 D0       		.byte	-48
 1043 0074 C6       		.byte	-58
 1044 0075 20       		.byte	32
 1045 0076 C7       		.byte	-57
 1046 0077 10       		.byte	16
 1047 0078 C8       		.byte	-56
 1048 0079 3A       		.byte	58
 1049 007a C9       		.byte	-55
 1050 007b FF       		.byte	-1
 1051 007c CA       		.byte	-54
 1052 007d FF       		.byte	-1
 1053 007e CB       		.byte	-53
 1054 007f FF       		.byte	-1
 1055 0080 CD       		.byte	-51
 1056 0081 AF       		.byte	-81
 1057 0082 CE       		.byte	-50
 1058 0083 0F       		.byte	15
 1059 0084 CF       		.byte	-49
 1060 0085 04       		.byte	4
 1061 0086 D0       		.byte	-48
 1062 0087 18       		.byte	24
 1063 0088 D4       		.byte	-44
 1064 0089 09       		.byte	9
 1065 008a D8       		.byte	-40
 1066 008b 04       		.byte	4
 1067 008c DA       		.byte	-38
 1068 008d 04       		.byte	4
 1069 008e DB       		.byte	-37
 1070 008f 04       		.byte	4
 1071 0090 DC       		.byte	-36
 1072 0091 01       		.byte	1
 1073 0092 DD       		.byte	-35
 1074 0093 13       		.byte	19
 1075 0094 DF       		.byte	-33
 1076 0095 01       		.byte	1
ARM GAS  C:\Users\Samuel\AppData\Local\Temp\cckvrh5D.s 			page 33


 1077 0096 E0       		.byte	-32
 1078 0097 40       		.byte	64
 1079 0098 E2       		.byte	-30
 1080 0099 C0       		.byte	-64
 1081 009a E4       		.byte	-28
 1082 009b 40       		.byte	64
 1083 009c E5       		.byte	-27
 1084 009d 40       		.byte	64
 1085 009e E6       		.byte	-26
 1086 009f C0       		.byte	-64
 1087 00a0 E8       		.byte	-24
 1088 00a1 C0       		.byte	-64
 1089 00a2 EA       		.byte	-22
 1090 00a3 C0       		.byte	-64
 1091 00a4 EC       		.byte	-20
 1092 00a5 C0       		.byte	-64
 1093 00a6 EE       		.byte	-18
 1094 00a7 C0       		.byte	-64
 1095 00a8 00       		.byte	0
 1096 00a9 60       		.byte	96
 1097 00aa 01       		.byte	1
 1098 00ab 0A       		.byte	10
 1099 00ac 04       		.byte	4
 1100 00ad 40       		.byte	64
 1101 00ae 09       		.byte	9
 1102 00af 88       		.byte	-120
 1103 00b0 0A       		.byte	10
 1104 00b1 80       		.byte	-128
 1105 00b2 0D       		.byte	13
 1106 00b3 04       		.byte	4
 1107 00b4 0E       		.byte	14
 1108 00b5 08       		.byte	8
 1109 00b6 10       		.byte	16
 1110 00b7 28       		.byte	40
 1111 00b8 12       		.byte	18
 1112 00b9 40       		.byte	64
 1113 00ba 13       		.byte	19
 1114 00bb 82       		.byte	-126
 1115 00bc 15       		.byte	21
 1116 00bd 80       		.byte	-128
 1117 00be 18       		.byte	24
 1118 00bf 05       		.byte	5
 1119 00c0 19       		.byte	25
 1120 00c1 08       		.byte	8
 1121 00c2 1D       		.byte	29
 1122 00c3 40       		.byte	64
 1123 00c4 1E       		.byte	30
 1124 00c5 88       		.byte	-120
 1125 00c6 20       		.byte	32
 1126 00c7 40       		.byte	64
 1127 00c8 21       		.byte	33
 1128 00c9 CC       		.byte	-52
 1129 00ca 22       		.byte	34
 1130 00cb 80       		.byte	-128
 1131 00cc 28       		.byte	40
 1132 00cd 20       		.byte	32
 1133 00ce 29       		.byte	41
ARM GAS  C:\Users\Samuel\AppData\Local\Temp\cckvrh5D.s 			page 34


 1134 00cf 02       		.byte	2
 1135 00d0 2A       		.byte	42
 1136 00d1 44       		.byte	68
 1137 00d2 30       		.byte	48
 1138 00d3 02       		.byte	2
 1139 00d4 31       		.byte	49
 1140 00d5 08       		.byte	8
 1141 00d6 32       		.byte	50
 1142 00d7 80       		.byte	-128
 1143 00d8 38       		.byte	56
 1144 00d9 40       		.byte	64
 1145 00da 39       		.byte	57
 1146 00db 15       		.byte	21
 1147 00dc 42       		.byte	66
 1148 00dd 20       		.byte	32
 1149 00de 43       		.byte	67
 1150 00df 03       		.byte	3
 1151 00e0 46       		.byte	70
 1152 00e1 20       		.byte	32
 1153 00e2 47       		.byte	71
 1154 00e3 01       		.byte	1
 1155 00e4 4F       		.byte	79
 1156 00e5 01       		.byte	1
 1157 00e6 56       		.byte	86
 1158 00e7 28       		.byte	40
 1159 00e8 57       		.byte	87
 1160 00e9 01       		.byte	1
 1161 00ea 5C       		.byte	92
 1162 00eb 21       		.byte	33
 1163 00ec 5E       		.byte	94
 1164 00ed 84       		.byte	-124
 1165 00ee 62       		.byte	98
 1166 00ef 08       		.byte	8
 1167 00f0 65       		.byte	101
 1168 00f1 40       		.byte	64
 1169 00f2 68       		.byte	104
 1170 00f3 2A       		.byte	42
 1171 00f4 69       		.byte	105
 1172 00f5 15       		.byte	21
 1173 00f6 6A       		.byte	106
 1174 00f7 80       		.byte	-128
 1175 00f8 6B       		.byte	107
 1176 00f9 80       		.byte	-128
 1177 00fa 73       		.byte	115
 1178 00fb 02       		.byte	2
 1179 00fc 82       		.byte	-126
 1180 00fd 04       		.byte	4
 1181 00fe C0       		.byte	-64
 1182 00ff 8F       		.byte	-113
 1183 0100 C2       		.byte	-62
 1184 0101 6D       		.byte	109
 1185 0102 C4       		.byte	-60
 1186 0103 8F       		.byte	-113
 1187 0104 CA       		.byte	-54
 1188 0105 0B       		.byte	11
 1189 0106 CC       		.byte	-52
 1190 0107 0B       		.byte	11
ARM GAS  C:\Users\Samuel\AppData\Local\Temp\cckvrh5D.s 			page 35


 1191 0108 CE       		.byte	-50
 1192 0109 0F       		.byte	15
 1193 010a D0       		.byte	-48
 1194 010b C3       		.byte	-61
 1195 010c D6       		.byte	-42
 1196 010d F0       		.byte	-16
 1197 010e D8       		.byte	-40
 1198 010f 12       		.byte	18
 1199 0110 01       		.byte	1
 1200 0111 01       		.byte	1
 1201 0112 05       		.byte	5
 1202 0113 01       		.byte	1
 1203 0114 12       		.byte	18
 1204 0115 02       		.byte	2
 1205 0116 1C       		.byte	28
 1206 0117 0C       		.byte	12
 1207 0118 26       		.byte	38
 1208 0119 02       		.byte	2
 1209 011a 28       		.byte	40
 1210 011b 0C       		.byte	12
 1211 011c 29       		.byte	41
 1212 011d 01       		.byte	1
 1213 011e 2E       		.byte	46
 1214 011f 05       		.byte	5
 1215 0120 30       		.byte	48
 1216 0121 01       		.byte	1
 1217 0122 31       		.byte	49
 1218 0123 01       		.byte	1
 1219 0124 32       		.byte	50
 1220 0125 08       		.byte	8
 1221 0126 34       		.byte	52
 1222 0127 02       		.byte	2
 1223 0128 36       		.byte	54
 1224 0129 04       		.byte	4
 1225 012a 3E       		.byte	62
 1226 012b 10       		.byte	16
 1227 012c 52       		.byte	82
 1228 012d 80       		.byte	-128
 1229 012e 54       		.byte	84
 1230 012f 05       		.byte	5
 1231 0130 58       		.byte	88
 1232 0131 04       		.byte	4
 1233 0132 59       		.byte	89
 1234 0133 04       		.byte	4
 1235 0134 5B       		.byte	91
 1236 0135 04       		.byte	4
 1237 0136 5C       		.byte	92
 1238 0137 33       		.byte	51
 1239 0138 5D       		.byte	93
 1240 0139 30       		.byte	48
 1241 013a 5F       		.byte	95
 1242 013b 01       		.byte	1
 1243 013c 00       		.byte	0
 1244 013d 40       		.byte	64
 1245 013e 01       		.byte	1
 1246 013f 12       		.byte	18
 1247 0140 03       		.byte	3
ARM GAS  C:\Users\Samuel\AppData\Local\Temp\cckvrh5D.s 			page 36


 1248 0141 20       		.byte	32
 1249 0142 09       		.byte	9
 1250 0143 08       		.byte	8
 1251 0144 0A       		.byte	10
 1252 0145 81       		.byte	-127
 1253 0146 0B       		.byte	11
 1254 0147 04       		.byte	4
 1255 0148 0E       		.byte	14
 1256 0149 80       		.byte	-128
 1257 014a 0F       		.byte	15
 1258 014b 02       		.byte	2
 1259 014c 10       		.byte	16
 1260 014d 22       		.byte	34
 1261 014e 13       		.byte	19
 1262 014f 02       		.byte	2
 1263 0150 16       		.byte	22
 1264 0151 28       		.byte	40
 1265 0152 17       		.byte	23
 1266 0153 40       		.byte	64
 1267 0154 18       		.byte	24
 1268 0155 10       		.byte	16
 1269 0156 19       		.byte	25
 1270 0157 02       		.byte	2
 1271 0158 1B       		.byte	27
 1272 0159 20       		.byte	32
 1273 015a 1E       		.byte	30
 1274 015b 88       		.byte	-120
 1275 015c 1F       		.byte	31
 1276 015d 8A       		.byte	-118
 1277 015e 22       		.byte	34
 1278 015f 18       		.byte	24
 1279 0160 27       		.byte	39
 1280 0161 80       		.byte	-128
 1281 0162 2F       		.byte	47
 1282 0163 08       		.byte	8
 1283 0164 32       		.byte	50
 1284 0165 98       		.byte	-104
 1285 0166 38       		.byte	56
 1286 0167 40       		.byte	64
 1287 0168 39       		.byte	57
 1288 0169 08       		.byte	8
 1289 016a 3E       		.byte	62
 1290 016b 08       		.byte	8
 1291 016c 3F       		.byte	63
 1292 016d 02       		.byte	2
 1293 016e 40       		.byte	64
 1294 016f 44       		.byte	68
 1295 0170 41       		.byte	65
 1296 0171 44       		.byte	68
 1297 0172 42       		.byte	66
 1298 0173 01       		.byte	1
 1299 0174 48       		.byte	72
 1300 0175 56       		.byte	86
 1301 0176 49       		.byte	73
 1302 0177 40       		.byte	64
 1303 0178 50       		.byte	80
 1304 0179 02       		.byte	2
ARM GAS  C:\Users\Samuel\AppData\Local\Temp\cckvrh5D.s 			page 37


 1305 017a 52       		.byte	82
 1306 017b 14       		.byte	20
 1307 017c 5E       		.byte	94
 1308 017d 08       		.byte	8
 1309 017e 5F       		.byte	95
 1310 017f 81       		.byte	-127
 1311 0180 60       		.byte	96
 1312 0181 10       		.byte	16
 1313 0182 61       		.byte	97
 1314 0183 40       		.byte	64
 1315 0184 62       		.byte	98
 1316 0185 10       		.byte	16
 1317 0186 77       		.byte	119
 1318 0187 40       		.byte	64
 1319 0188 87       		.byte	-121
 1320 0189 80       		.byte	-128
 1321 018a 90       		.byte	-112
 1322 018b 44       		.byte	68
 1323 018c 91       		.byte	-111
 1324 018d 98       		.byte	-104
 1325 018e 92       		.byte	-110
 1326 018f 80       		.byte	-128
 1327 0190 93       		.byte	-109
 1328 0191 05       		.byte	5
 1329 0192 9A       		.byte	-102
 1330 0193 28       		.byte	40
 1331 0194 9B       		.byte	-101
 1332 0195 02       		.byte	2
 1333 0196 9D       		.byte	-99
 1334 0197 02       		.byte	2
 1335 0198 9E       		.byte	-98
 1336 0199 04       		.byte	4
 1337 019a A0       		.byte	-96
 1338 019b 24       		.byte	36
 1339 019c A1       		.byte	-95
 1340 019d 08       		.byte	8
 1341 019e A2       		.byte	-94
 1342 019f 80       		.byte	-128
 1343 01a0 A3       		.byte	-93
 1344 01a1 01       		.byte	1
 1345 01a2 A4       		.byte	-92
 1346 01a3 50       		.byte	80
 1347 01a4 A6       		.byte	-90
 1348 01a5 08       		.byte	8
 1349 01a6 A7       		.byte	-89
 1350 01a7 02       		.byte	2
 1351 01a8 AC       		.byte	-84
 1352 01a9 44       		.byte	68
 1353 01aa AD       		.byte	-83
 1354 01ab 08       		.byte	8
 1355 01ac AE       		.byte	-82
 1356 01ad 04       		.byte	4
 1357 01ae B3       		.byte	-77
 1358 01af 84       		.byte	-124
 1359 01b0 C0       		.byte	-64
 1360 01b1 0F       		.byte	15
 1361 01b2 C2       		.byte	-62
ARM GAS  C:\Users\Samuel\AppData\Local\Temp\cckvrh5D.s 			page 38


 1362 01b3 9F       		.byte	-97
 1363 01b4 C4       		.byte	-60
 1364 01b5 ED       		.byte	-19
 1365 01b6 CA       		.byte	-54
 1366 01b7 20       		.byte	32
 1367 01b8 CC       		.byte	-52
 1368 01b9 0E       		.byte	14
 1369 01ba CE       		.byte	-50
 1370 01bb CA       		.byte	-54
 1371 01bc D0       		.byte	-48
 1372 01bd 0F       		.byte	15
 1373 01be D2       		.byte	-46
 1374 01bf 04       		.byte	4
 1375 01c0 D6       		.byte	-42
 1376 01c1 D0       		.byte	-48
 1377 01c2 D8       		.byte	-40
 1378 01c3 0E       		.byte	14
 1379 01c4 E2       		.byte	-30
 1380 01c5 04       		.byte	4
 1381 01c6 E4       		.byte	-28
 1382 01c7 08       		.byte	8
 1383 01c8 E6       		.byte	-26
 1384 01c9 02       		.byte	2
 1385 01ca 0F       		.byte	15
 1386 01cb 40       		.byte	64
 1387 01cc 63       		.byte	99
 1388 01cd 0A       		.byte	10
 1389 01ce 83       		.byte	-125
 1390 01cf 04       		.byte	4
 1391 01d0 C2       		.byte	-62
 1392 01d1 20       		.byte	32
 1393 01d2 D6       		.byte	-42
 1394 01d3 40       		.byte	64
 1395 01d4 D8       		.byte	-40
 1396 01d5 40       		.byte	64
 1397 01d6 E6       		.byte	-26
 1398 01d7 20       		.byte	32
 1399 01d8 52       		.byte	82
 1400 01d9 08       		.byte	8
 1401 01da 58       		.byte	88
 1402 01db 10       		.byte	16
 1403 01dc 82       		.byte	-126
 1404 01dd 08       		.byte	8
 1405 01de 84       		.byte	-124
 1406 01df 10       		.byte	16
 1407 01e0 AF       		.byte	-81
 1408 01e1 41       		.byte	65
 1409 01e2 D4       		.byte	-44
 1410 01e3 A0       		.byte	-96
 1411 01e4 E2       		.byte	-30
 1412 01e5 20       		.byte	32
 1413 01e6 E6       		.byte	-26
 1414 01e7 40       		.byte	64
 1415 01e8 EC       		.byte	-20
 1416 01e9 40       		.byte	64
 1417 01ea EE       		.byte	-18
 1418 01eb 10       		.byte	16
ARM GAS  C:\Users\Samuel\AppData\Local\Temp\cckvrh5D.s 			page 39


 1419 01ec 63       		.byte	99
 1420 01ed 02       		.byte	2
 1421 01ee D6       		.byte	-42
 1422 01ef 02       		.byte	2
 1423 01f0 1B       		.byte	27
 1424 01f1 08       		.byte	8
 1425 01f2 1E       		.byte	30
 1426 01f3 40       		.byte	64
 1427 01f4 82       		.byte	-126
 1428 01f5 40       		.byte	64
 1429 01f6 87       		.byte	-121
 1430 01f7 09       		.byte	9
 1431 01f8 A7       		.byte	-89
 1432 01f9 01       		.byte	1
 1433 01fa C6       		.byte	-58
 1434 01fb 0C       		.byte	12
 1435 01fc 10       		.byte	16
 1436 01fd 0A       		.byte	10
 1437 01fe 11       		.byte	17
 1438 01ff 01       		.byte	1
 1439              		.align	2
 1440              		.type	BS_UDB_0_0_0_CONFIG_VAL.4748, %object
 1441              		.size	BS_UDB_0_0_0_CONFIG_VAL.4748, 128
 1442              	BS_UDB_0_0_0_CONFIG_VAL.4748:
 1443 0200 10       		.byte	16
 1444 0201 00       		.byte	0
 1445 0202 60       		.byte	96
 1446 0203 00       		.byte	0
 1447 0204 02       		.byte	2
 1448 0205 55       		.byte	85
 1449 0206 0D       		.byte	13
 1450 0207 AA       		.byte	-86
 1451 0208 8D       		.byte	-115
 1452 0209 00       		.byte	0
 1453 020a 40       		.byte	64
 1454 020b 00       		.byte	0
 1455 020c 01       		.byte	1
 1456 020d 33       		.byte	51
 1457 020e 32       		.byte	50
 1458 020f 4C       		.byte	76
 1459 0210 4D       		.byte	77
 1460 0211 00       		.byte	0
 1461 0212 80       		.byte	-128
 1462 0213 00       		.byte	0
 1463 0214 12       		.byte	18
 1464 0215 02       		.byte	2
 1465 0216 64       		.byte	100
 1466 0217 0D       		.byte	13
 1467 0218 CD       		.byte	-51
 1468 0219 E0       		.byte	-32
 1469 021a 00       		.byte	0
 1470 021b 00       		.byte	0
 1471 021c 72       		.byte	114
 1472 021d 49       		.byte	73
 1473 021e 08       		.byte	8
 1474 021f 96       		.byte	-106
 1475 0220 CD       		.byte	-51
ARM GAS  C:\Users\Samuel\AppData\Local\Temp\cckvrh5D.s 			page 40


 1476 0221 00       		.byte	0
 1477 0222 00       		.byte	0
 1478 0223 00       		.byte	0
 1479 0224 CD       		.byte	-51
 1480 0225 00       		.byte	0
 1481 0226 00       		.byte	0
 1482 0227 00       		.byte	0
 1483 0228 00       		.byte	0
 1484 0229 00       		.byte	0
 1485 022a 00       		.byte	0
 1486 022b 00       		.byte	0
 1487 022c 00       		.byte	0
 1488 022d 00       		.byte	0
 1489 022e 80       		.byte	-128
 1490 022f 00       		.byte	0
 1491 0230 70       		.byte	112
 1492 0231 00       		.byte	0
 1493 0232 80       		.byte	-128
 1494 0233 0F       		.byte	15
 1495 0234 0F       		.byte	15
 1496 0235 F0       		.byte	-16
 1497 0236 00       		.byte	0
 1498 0237 00       		.byte	0
 1499 0238 00       		.byte	0
 1500 0239 20       		.byte	32
 1501 023a 22       		.byte	34
 1502 023b 08       		.byte	8
 1503 023c 00       		.byte	0
 1504 023d 00       		.byte	0
 1505 023e 04       		.byte	4
 1506 023f 00       		.byte	0
 1507 0240 31       		.byte	49
 1508 0241 04       		.byte	4
 1509 0242 20       		.byte	32
 1510 0243 00       		.byte	0
 1511 0244 06       		.byte	6
 1512 0245 EB       		.byte	-21
 1513 0246 F0       		.byte	-16
 1514 0247 DC       		.byte	-36
 1515 0248 3B       		.byte	59
 1516 0249 FF       		.byte	-1
 1517 024a FF       		.byte	-1
 1518 024b FF       		.byte	-1
 1519 024c 22       		.byte	34
 1520 024d 00       		.byte	0
 1521 024e F0       		.byte	-16
 1522 024f 08       		.byte	8
 1523 0250 04       		.byte	4
 1524 0251 00       		.byte	0
 1525 0252 00       		.byte	0
 1526 0253 00       		.byte	0
 1527 0254 40       		.byte	64
 1528 0255 00       		.byte	0
 1529 0256 00       		.byte	0
 1530 0257 00       		.byte	0
 1531 0258 04       		.byte	4
 1532 0259 04       		.byte	4
ARM GAS  C:\Users\Samuel\AppData\Local\Temp\cckvrh5D.s 			page 41


 1533 025a 04       		.byte	4
 1534 025b 04       		.byte	4
 1535 025c 11       		.byte	17
 1536 025d 11       		.byte	17
 1537 025e 00       		.byte	0
 1538 025f 01       		.byte	1
 1539 0260 00       		.byte	0
 1540 0261 00       		.byte	0
 1541 0262 C0       		.byte	-64
 1542 0263 00       		.byte	0
 1543 0264 40       		.byte	64
 1544 0265 01       		.byte	1
 1545 0266 10       		.byte	16
 1546 0267 11       		.byte	17
 1547 0268 C0       		.byte	-64
 1548 0269 01       		.byte	1
 1549 026a 00       		.byte	0
 1550 026b 11       		.byte	17
 1551 026c 40       		.byte	64
 1552 026d 01       		.byte	1
 1553 026e 40       		.byte	64
 1554 026f 01       		.byte	1
 1555 0270 00       		.byte	0
 1556 0271 00       		.byte	0
 1557 0272 00       		.byte	0
 1558 0273 00       		.byte	0
 1559 0274 00       		.byte	0
 1560 0275 00       		.byte	0
 1561 0276 00       		.byte	0
 1562 0277 00       		.byte	0
 1563 0278 00       		.byte	0
 1564 0279 00       		.byte	0
 1565 027a 00       		.byte	0
 1566 027b 00       		.byte	0
 1567 027c 00       		.byte	0
 1568 027d 00       		.byte	0
 1569 027e 00       		.byte	0
 1570 027f 00       		.byte	0
 1571              		.align	2
 1572              		.type	BS_UDB_0_1_0_CONFIG_VAL.4747, %object
 1573              		.size	BS_UDB_0_1_0_CONFIG_VAL.4747, 128
 1574              	BS_UDB_0_1_0_CONFIG_VAL.4747:
 1575 0280 04       		.byte	4
 1576 0281 1A       		.byte	26
 1577 0282 00       		.byte	0
 1578 0283 00       		.byte	0
 1579 0284 01       		.byte	1
 1580 0285 18       		.byte	24
 1581 0286 00       		.byte	0
 1582 0287 02       		.byte	2
 1583 0288 60       		.byte	96
 1584 0289 02       		.byte	2
 1585 028a 00       		.byte	0
 1586 028b 18       		.byte	24
 1587 028c 07       		.byte	7
 1588 028d 33       		.byte	51
 1589 028e 38       		.byte	56
ARM GAS  C:\Users\Samuel\AppData\Local\Temp\cckvrh5D.s 			page 42


 1590 028f 44       		.byte	68
 1591 0290 04       		.byte	4
 1592 0291 18       		.byte	24
 1593 0292 80       		.byte	-128
 1594 0293 02       		.byte	2
 1595 0294 0A       		.byte	10
 1596 0295 C1       		.byte	-63
 1597 0296 10       		.byte	16
 1598 0297 38       		.byte	56
 1599 0298 00       		.byte	0
 1600 0299 00       		.byte	0
 1601 029a 00       		.byte	0
 1602 029b 00       		.byte	0
 1603 029c 56       		.byte	86
 1604 029d 9C       		.byte	-100
 1605 029e 09       		.byte	9
 1606 029f 03       		.byte	3
 1607 02a0 84       		.byte	-124
 1608 02a1 18       		.byte	24
 1609 02a2 00       		.byte	0
 1610 02a3 00       		.byte	0
 1611 02a4 84       		.byte	-124
 1612 02a5 82       		.byte	-126
 1613 02a6 00       		.byte	0
 1614 02a7 00       		.byte	0
 1615 02a8 80       		.byte	-128
 1616 02a9 00       		.byte	0
 1617 02aa 04       		.byte	4
 1618 02ab 00       		.byte	0
 1619 02ac 84       		.byte	-124
 1620 02ad 1A       		.byte	26
 1621 02ae 00       		.byte	0
 1622 02af 00       		.byte	0
 1623 02b0 00       		.byte	0
 1624 02b1 13       		.byte	19
 1625 02b2 7F       		.byte	127
 1626 02b3 0F       		.byte	15
 1627 02b4 80       		.byte	-128
 1628 02b5 00       		.byte	0
 1629 02b6 80       		.byte	-128
 1630 02b7 E0       		.byte	-32
 1631 02b8 08       		.byte	8
 1632 02b9 00       		.byte	0
 1633 02ba 00       		.byte	0
 1634 02bb 88       		.byte	-120
 1635 02bc 00       		.byte	0
 1636 02bd 00       		.byte	0
 1637 02be 50       		.byte	80
 1638 02bf 00       		.byte	0
 1639 02c0 40       		.byte	64
 1640 02c1 03       		.byte	3
 1641 02c2 00       		.byte	0
 1642 02c3 00       		.byte	0
 1643 02c4 00       		.byte	0
 1644 02c5 00       		.byte	0
 1645 02c6 00       		.byte	0
 1646 02c7 00       		.byte	0
ARM GAS  C:\Users\Samuel\AppData\Local\Temp\cckvrh5D.s 			page 43


 1647 02c8 00       		.byte	0
 1648 02c9 FF       		.byte	-1
 1649 02ca FF       		.byte	-1
 1650 02cb FF       		.byte	-1
 1651 02cc 00       		.byte	0
 1652 02cd A0       		.byte	-96
 1653 02ce 00       		.byte	0
 1654 02cf 04       		.byte	4
 1655 02d0 18       		.byte	24
 1656 02d1 00       		.byte	0
 1657 02d2 00       		.byte	0
 1658 02d3 00       		.byte	0
 1659 02d4 00       		.byte	0
 1660 02d5 00       		.byte	0
 1661 02d6 02       		.byte	2
 1662 02d7 28       		.byte	40
 1663 02d8 04       		.byte	4
 1664 02d9 04       		.byte	4
 1665 02da 04       		.byte	4
 1666 02db 04       		.byte	4
 1667 02dc 11       		.byte	17
 1668 02dd 13       		.byte	19
 1669 02de 00       		.byte	0
 1670 02df 01       		.byte	1
 1671 02e0 40       		.byte	64
 1672 02e1 00       		.byte	0
 1673 02e2 C0       		.byte	-64
 1674 02e3 00       		.byte	0
 1675 02e4 40       		.byte	64
 1676 02e5 40       		.byte	64
 1677 02e6 C0       		.byte	-64
 1678 02e7 00       		.byte	0
 1679 02e8 C0       		.byte	-64
 1680 02e9 00       		.byte	0
 1681 02ea C0       		.byte	-64
 1682 02eb 00       		.byte	0
 1683 02ec C0       		.byte	-64
 1684 02ed 00       		.byte	0
 1685 02ee C0       		.byte	-64
 1686 02ef 00       		.byte	0
 1687 02f0 00       		.byte	0
 1688 02f1 00       		.byte	0
 1689 02f2 00       		.byte	0
 1690 02f3 00       		.byte	0
 1691 02f4 00       		.byte	0
 1692 02f5 00       		.byte	0
 1693 02f6 00       		.byte	0
 1694 02f7 00       		.byte	0
 1695 02f8 00       		.byte	0
 1696 02f9 00       		.byte	0
 1697 02fa 00       		.byte	0
 1698 02fb 00       		.byte	0
 1699 02fc 00       		.byte	0
 1700 02fd 00       		.byte	0
 1701 02fe 00       		.byte	0
 1702 02ff 00       		.byte	0
 1703              		.text
ARM GAS  C:\Users\Samuel\AppData\Local\Temp\cckvrh5D.s 			page 44


 1704              	.Letext0:
 1705              		.file 2 "c:\\program files (x86)\\cypress\\psoc creator\\3.1\\psoc creator\\import\\gnu_cs\\arm\\4
 1706              		.file 3 ".\\Generated_Source\\PSoC4/cytypes.h"